SF:/Users/mac/Documents/DripsOS/Commitlabs-Contracts/contracts/allocation_logic/src/lib.rs
FN:65,_RNvXs13_Cs5hgWfBbbdaU_16allocation_logicNtNtNtCs6Rj5jpQNCXl_11stellar_xdr4curr9generated5ScValINtNtCskzPJi2J8k3N_4core7convert7TryFromRNtB6_10AllocationE8try_from
FN:74,_RNvXs1e_Cs5hgWfBbbdaU_16allocation_logicNtNtNtCs6Rj5jpQNCXl_11stellar_xdr4curr9generated5ScValINtNtCskzPJi2J8k3N_4core7convert7TryFromRNtB6_17AllocationSummaryE8try_from
FN:87,_RNvXs1p_Cs5hgWfBbbdaU_16allocation_logicNtNtNtCs6Rj5jpQNCXl_11stellar_xdr4curr9generated5ScValINtNtCskzPJi2J8k3N_4core7convert7TryFromRNtB6_7DataKeyE8try_from
FN:44,_RNvXsD_Cs5hgWfBbbdaU_16allocation_logicNtNtNtCs6Rj5jpQNCXl_11stellar_xdr4curr9generated5ScValINtNtCskzPJi2J8k3N_4core7convert7TryFromRNtB5_9RiskLevelE8try_from
FN:52,_RNvXsS_Cs5hgWfBbbdaU_16allocation_logicNtNtNtCs6Rj5jpQNCXl_11stellar_xdr4curr9generated5ScValINtNtCskzPJi2J8k3N_4core7convert7TryFromRNtB5_4PoolE8try_from
FN:36,_RNvXso_Cs5hgWfBbbdaU_16allocation_logicNtNtNtCs6Rj5jpQNCXl_11stellar_xdr4curr9generated5ScValINtNtCskzPJi2J8k3N_4core7convert7TryFromRNtB5_8StrategyE8try_from
FN:116,_RNvMs1w_Cs5hgWfBbbdaU_16allocation_logicNtB6_28AllocationStrategiesContract10initialize
FN:630,_RNvMs1w_Cs5hgWfBbbdaU_16allocation_logicNtB6_28AllocationStrategiesContract12select_pools
FN:534,_RNvMs1w_Cs5hgWfBbbdaU_16allocation_logicNtB6_28AllocationStrategiesContract13get_all_pools
FN:144,_RNvMs1w_Cs5hgWfBbbdaU_16allocation_logicNtB6_28AllocationStrategiesContract13register_pool
FN:563,_RNvMs1w_Cs5hgWfBbbdaU_16allocation_logicNtB6_28AllocationStrategiesContract13require_admin
FN:509,_RNvMs1w_Cs5hgWfBbbdaU_16allocation_logicNtB6_28AllocationStrategiesContract14get_allocation
FN:548,_RNvMs1w_Cs5hgWfBbbdaU_16allocation_logicNtB6_28AllocationStrategiesContract14is_initialized
FN:577,_RNvMs1w_Cs5hgWfBbbdaU_16allocation_logicNtB6_28AllocationStrategiesContract14set_rate_limit
FN:624,_RNvMs1w_Cs5hgWfBbbdaU_16allocation_logicNtB6_28AllocationStrategiesContract17get_pool_internal
FN:201,_RNvMs1w_Cs5hgWfBbbdaU_16allocation_logicNtB6_28AllocationStrategiesContract18update_pool_status
FN:736,_RNvMs1w_Cs5hgWfBbbdaU_16allocation_logicNtB6_28AllocationStrategiesContract19distribute_to_pools
FN:556,_RNvMs1w_Cs5hgWfBbbdaU_16allocation_logicNtB6_28AllocationStrategiesContract19require_initialized
FN:658,_RNvMs1w_Cs5hgWfBbbdaU_16allocation_logicNtB6_28AllocationStrategiesContract20calculate_allocation
FN:620,_RNvMs1w_Cs5hgWfBbbdaU_16allocation_logicNtB6_28AllocationStrategiesContract20set_reentrancy_guard
FN:226,_RNvMs1w_Cs5hgWfBbbdaU_16allocation_logicNtB6_28AllocationStrategiesContract20update_pool_capacity
FN:609,_RNvMs1w_Cs5hgWfBbbdaU_16allocation_logicNtB6_28AllocationStrategiesContract21require_no_reentrancy
FN:595,_RNvMs1w_Cs5hgWfBbbdaU_16allocation_logicNtB6_28AllocationStrategiesContract21set_rate_limit_exempt
FN:280,_RNvMs1w_Cs5hgWfBbbdaU_16allocation_logicNtB6_28AllocationStrategiesContract8allocate
FN:530,_RNvMs1w_Cs5hgWfBbbdaU_16allocation_logicNtB6_28AllocationStrategiesContract8get_pool
FN:400,_RNvMs1w_Cs5hgWfBbbdaU_16allocation_logicNtB6_28AllocationStrategiesContract9rebalance
FN:693,_RNCNvMs1w_Cs5hgWfBbbdaU_16allocation_logicNtB8_28AllocationStrategiesContract20calculate_allocation0B8_
FN:701,_RNCNvMs1w_Cs5hgWfBbbdaU_16allocation_logicNtB8_28AllocationStrategiesContract20calculate_allocations0_0B8_
FN:721,_RNCNvMs1w_Cs5hgWfBbbdaU_16allocation_logicNtB8_28AllocationStrategiesContract20calculate_allocations1_0B8_
FN:725,_RNCNvMs1w_Cs5hgWfBbbdaU_16allocation_logicNtB8_28AllocationStrategiesContract20calculate_allocations2_0B8_
FN:697,_RNCNvMs1w_Cs5hgWfBbbdaU_16allocation_logicNtB8_28AllocationStrategiesContract20calculate_allocations_0B8_
FNDA:0,_RNvXs13_Cs5hgWfBbbdaU_16allocation_logicNtNtNtCs6Rj5jpQNCXl_11stellar_xdr4curr9generated5ScValINtNtCskzPJi2J8k3N_4core7convert7TryFromRNtB6_10AllocationE8try_from
FNDA:0,_RNvXs1e_Cs5hgWfBbbdaU_16allocation_logicNtNtNtCs6Rj5jpQNCXl_11stellar_xdr4curr9generated5ScValINtNtCskzPJi2J8k3N_4core7convert7TryFromRNtB6_17AllocationSummaryE8try_from
FNDA:0,_RNvXs1p_Cs5hgWfBbbdaU_16allocation_logicNtNtNtCs6Rj5jpQNCXl_11stellar_xdr4curr9generated5ScValINtNtCskzPJi2J8k3N_4core7convert7TryFromRNtB6_7DataKeyE8try_from
FNDA:0,_RNvXsD_Cs5hgWfBbbdaU_16allocation_logicNtNtNtCs6Rj5jpQNCXl_11stellar_xdr4curr9generated5ScValINtNtCskzPJi2J8k3N_4core7convert7TryFromRNtB5_9RiskLevelE8try_from
FNDA:0,_RNvXsS_Cs5hgWfBbbdaU_16allocation_logicNtNtNtCs6Rj5jpQNCXl_11stellar_xdr4curr9generated5ScValINtNtCskzPJi2J8k3N_4core7convert7TryFromRNtB5_4PoolE8try_from
FNDA:0,_RNvXso_Cs5hgWfBbbdaU_16allocation_logicNtNtNtCs6Rj5jpQNCXl_11stellar_xdr4curr9generated5ScValINtNtCskzPJi2J8k3N_4core7convert7TryFromRNtB5_8StrategyE8try_from
FNDA:26,_RNvMs1w_Cs5hgWfBbbdaU_16allocation_logicNtB6_28AllocationStrategiesContract10initialize
FNDA:19,_RNvMs1w_Cs5hgWfBbbdaU_16allocation_logicNtB6_28AllocationStrategiesContract12select_pools
FNDA:1,_RNvMs1w_Cs5hgWfBbbdaU_16allocation_logicNtB6_28AllocationStrategiesContract13get_all_pools
FNDA:90,_RNvMs1w_Cs5hgWfBbbdaU_16allocation_logicNtB6_28AllocationStrategiesContract13register_pool
FNDA:93,_RNvMs1w_Cs5hgWfBbbdaU_16allocation_logicNtB6_28AllocationStrategiesContract13require_admin
FNDA:7,_RNvMs1w_Cs5hgWfBbbdaU_16allocation_logicNtB6_28AllocationStrategiesContract14get_allocation
FNDA:1,_RNvMs1w_Cs5hgWfBbbdaU_16allocation_logicNtB6_28AllocationStrategiesContract14is_initialized
FNDA:1,_RNvMs1w_Cs5hgWfBbbdaU_16allocation_logicNtB6_28AllocationStrategiesContract14set_rate_limit
FNDA:189,_RNvMs1w_Cs5hgWfBbbdaU_16allocation_logicNtB6_28AllocationStrategiesContract17get_pool_internal
FNDA:2,_RNvMs1w_Cs5hgWfBbbdaU_16allocation_logicNtB6_28AllocationStrategiesContract18update_pool_status
FNDA:26,_RNvMs1w_Cs5hgWfBbbdaU_16allocation_logicNtB6_28AllocationStrategiesContract19distribute_to_pools
FNDA:116,_RNvMs1w_Cs5hgWfBbbdaU_16allocation_logicNtB6_28AllocationStrategiesContract19require_initialized
FNDA:18,_RNvMs1w_Cs5hgWfBbbdaU_16allocation_logicNtB6_28AllocationStrategiesContract20calculate_allocation
FNDA:42,_RNvMs1w_Cs5hgWfBbbdaU_16allocation_logicNtB6_28AllocationStrategiesContract20set_reentrancy_guard
FNDA:0,_RNvMs1w_Cs5hgWfBbbdaU_16allocation_logicNtB6_28AllocationStrategiesContract20update_pool_capacity
FNDA:114,_RNvMs1w_Cs5hgWfBbbdaU_16allocation_logicNtB6_28AllocationStrategiesContract21require_no_reentrancy
FNDA:0,_RNvMs1w_Cs5hgWfBbbdaU_16allocation_logicNtB6_28AllocationStrategiesContract21set_rate_limit_exempt
FNDA:21,_RNvMs1w_Cs5hgWfBbbdaU_16allocation_logicNtB6_28AllocationStrategiesContract8allocate
FNDA:10,_RNvMs1w_Cs5hgWfBbbdaU_16allocation_logicNtB6_28AllocationStrategiesContract8get_pool
FNDA:2,_RNvMs1w_Cs5hgWfBbbdaU_16allocation_logicNtB6_28AllocationStrategiesContract9rebalance
FNDA:8,_RNCNvMs1w_Cs5hgWfBbbdaU_16allocation_logicNtB8_28AllocationStrategiesContract20calculate_allocation0B8_
FNDA:8,_RNCNvMs1w_Cs5hgWfBbbdaU_16allocation_logicNtB8_28AllocationStrategiesContract20calculate_allocations0_0B8_
FNDA:1,_RNCNvMs1w_Cs5hgWfBbbdaU_16allocation_logicNtB8_28AllocationStrategiesContract20calculate_allocations1_0B8_
FNDA:1,_RNCNvMs1w_Cs5hgWfBbbdaU_16allocation_logicNtB8_28AllocationStrategiesContract20calculate_allocations2_0B8_
FNDA:8,_RNCNvMs1w_Cs5hgWfBbbdaU_16allocation_logicNtB8_28AllocationStrategiesContract20calculate_allocations_0B8_
FNF:31
FNH:23
DA:36,0
DA:44,0
DA:52,0
DA:65,0
DA:74,0
DA:87,0
DA:116,26
DA:118,26
DA:119,1
DA:120,25
DA:123,25
DA:126,25
DA:127,25
DA:128,25
DA:129,25
DA:132,25
DA:133,25
DA:134,25
DA:137,25
DA:138,26
DA:144,90
DA:145,90
DA:146,90
DA:147,90
DA:148,90
DA:149,90
DA:150,90
DA:151,90
DA:152,90
DA:153,90
DA:154,90
DA:155,89
DA:158,89
DA:159,1
DA:160,88
DA:162,88
DA:163,1
DA:164,87
DA:167,87
DA:168,1
DA:169,86
DA:171,86
DA:172,86
DA:173,86
DA:174,86
DA:175,86
DA:176,86
DA:177,86
DA:178,86
DA:179,86
DA:180,86
DA:183,86
DA:186,86
DA:187,86
DA:188,86
DA:189,86
DA:190,86
DA:193,86
DA:194,86
DA:195,86
DA:198,86
DA:199,90
DA:201,2
DA:202,2
DA:203,2
DA:204,2
DA:205,2
DA:206,2
DA:207,2
DA:208,2
DA:209,2
DA:210,2
DA:212,2
DA:213,2
DA:214,2
DA:216,2
DA:218,2
DA:219,2
DA:220,2
DA:223,2
DA:224,2
DA:226,0
DA:227,0
DA:228,0
DA:229,0
DA:230,0
DA:231,0
DA:232,0
DA:233,0
DA:234,0
DA:236,0
DA:237,0
DA:238,0
DA:240,0
DA:243,0
DA:244,0
DA:245,0
DA:247,0
DA:248,0
DA:250,0
DA:252,0
DA:253,0
DA:280,21
DA:281,21
DA:282,21
DA:283,21
DA:284,21
DA:285,21
DA:286,21
DA:287,21
DA:288,21
DA:289,21
DA:292,21
DA:293,21
DA:296,21
DA:299,21
DA:300,1
DA:301,1
DA:302,20
DA:305,20
DA:306,1
DA:307,1
DA:308,19
DA:311,19
DA:314,19
DA:317,19
DA:319,19
DA:320,1
DA:321,1
DA:322,18
DA:325,18
DA:328,18
DA:329,18
DA:331,67
DA:332,67
DA:333,0
DA:334,67
DA:337,67
DA:340,67
DA:341,0
DA:342,0
DA:343,67
DA:346,67
DA:347,67
DA:349,67
DA:350,1
DA:351,1
DA:352,66
DA:354,66
DA:355,66
DA:356,66
DA:359,66
DA:360,66
DA:361,66
DA:362,66
DA:363,66
DA:364,66
DA:366,66
DA:369,66
DA:370,66
DA:374,16
DA:375,0
DA:376,0
DA:377,16
DA:380,16
DA:381,16
DA:384,16
DA:387,16
DA:388,16
DA:389,16
DA:392,16
DA:393,16
DA:394,16
DA:395,16
DA:396,16
DA:397,16
DA:398,21
DA:400,2
DA:401,2
DA:402,2
DA:403,2
DA:404,2
DA:405,2
DA:406,2
DA:407,2
DA:410,2
DA:411,2
DA:414,2
DA:415,2
DA:416,2
DA:418,2
DA:419,1
DA:420,1
DA:422,1
DA:425,1
DA:426,1
DA:427,1
DA:430,1
DA:431,1
DA:432,1
DA:434,1
DA:437,2
DA:438,2
DA:439,2
DA:441,2
DA:442,2
DA:443,2
DA:444,2
DA:445,2
DA:449,1
DA:450,1
DA:452,1
DA:453,1
DA:455,1
DA:456,1
DA:457,0
DA:458,1
DA:460,1
DA:462,1
DA:463,0
DA:464,1
DA:466,1
DA:467,1
DA:469,1
DA:470,1
DA:471,1
DA:472,1
DA:474,1
DA:475,1
DA:476,1
DA:477,1
DA:478,1
DA:479,1
DA:481,1
DA:482,1
DA:483,1
DA:484,0
DA:487,1
DA:488,1
DA:490,1
DA:492,1
DA:493,1
DA:494,1
DA:497,1
DA:498,1
DA:499,1
DA:500,1
DA:501,1
DA:502,1
DA:503,2
DA:509,7
DA:510,7
DA:511,7
DA:512,7
DA:514,7
DA:515,7
DA:516,7
DA:518,7
DA:519,7
DA:520,7
DA:522,7
DA:523,7
DA:524,7
DA:525,7
DA:526,7
DA:527,7
DA:528,7
DA:530,10
DA:531,10
DA:532,10
DA:534,1
DA:535,1
DA:536,1
DA:537,1
DA:539,1
DA:540,3
DA:541,3
DA:542,3
DA:543,3
DA:545,1
DA:546,1
DA:548,1
DA:549,1
DA:550,1
DA:556,116
DA:557,116
DA:558,0
DA:559,116
DA:560,116
DA:561,116
DA:563,93
DA:564,93
DA:565,93
DA:566,93
DA:568,93
DA:569,1
DA:570,92
DA:571,92
DA:572,93
DA:577,1
DA:578,1
DA:579,1
DA:580,1
DA:581,1
DA:582,1
DA:583,1
DA:584,1
DA:585,1
DA:586,1
DA:588,1
DA:589,1
DA:590,1
DA:595,0
DA:596,0
DA:597,0
DA:598,0
DA:599,0
DA:600,0
DA:601,0
DA:602,0
DA:603,0
DA:605,0
DA:606,0
DA:607,0
DA:609,114
DA:610,114
DA:611,114
DA:612,114
DA:614,114
DA:615,0
DA:616,114
DA:617,114
DA:618,114
DA:620,42
DA:621,42
DA:622,42
DA:624,189
DA:625,189
DA:626,189
DA:627,189
DA:628,189
DA:630,19
DA:631,19
DA:633,19
DA:634,19
DA:635,19
DA:637,104
DA:638,104
DA:639,104
DA:640,2
DA:641,102
DA:643,102
DA:644,48
DA:645,48
DA:646,6
DA:649,102
DA:650,68
DA:651,68
DA:652,0
DA:655,19
DA:656,19
DA:658,18
DA:659,18
DA:660,18
DA:661,18
DA:662,18
DA:663,18
DA:664,18
DA:665,18
DA:667,18
DA:668,0
DA:669,18
DA:671,18
DA:673,9
DA:674,16
DA:675,16
DA:676,16
DA:679,8
DA:680,8
DA:681,8
DA:683,48
DA:684,48
DA:685,16
DA:686,16
DA:687,16
DA:692,8
DA:693,8
DA:694,8
DA:696,8
DA:697,8
DA:698,8
DA:700,8
DA:701,8
DA:702,8
DA:704,8
DA:705,8
DA:706,8
DA:709,1
DA:710,1
DA:712,4
DA:713,4
DA:714,2
DA:715,2
DA:716,0
DA:720,1
DA:721,1
DA:722,1
DA:724,1
DA:725,1
DA:726,1
DA:728,1
DA:729,1
DA:733,18
DA:734,18
DA:736,26
DA:737,26
DA:738,26
DA:739,26
DA:740,26
DA:741,26
DA:742,26
DA:743,26
DA:744,0
DA:745,26
DA:747,26
DA:749,52
DA:750,52
DA:751,52
DA:753,52
DA:754,0
DA:756,52
DA:759,52
DA:760,52
DA:761,52
DA:764,26
DA:765,26
BRF:0
BRH:0
LF:441
LH:387
end_of_record
SF:/Users/mac/Documents/DripsOS/Commitlabs-Contracts/contracts/attestation_engine/src/lib.rs
FN:616,_RNCNvMs1o_CsdOFgf7y8b0U_18attestation_engineNtB8_25AttestationEngineContract16get_attestations0B8_
FN:341,_RNCNvMs1o_CsdOFgf7y8b0U_18attestation_engineNtB8_25AttestationEngineContract21update_health_metrics0B8_
FN:962,_RNCNvMs1o_CsdOFgf7y8b0U_18attestation_engineNtB8_25AttestationEngineContract26calculate_compliance_score0B8_
FN:547,_RNCNvMs1o_CsdOFgf7y8b0U_18attestation_engineNtB8_25AttestationEngineContract6attest0B8_
FN:103,_RNvXs1d_CsdOFgf7y8b0U_18attestation_engineNtNtNtCs6Rj5jpQNCXl_11stellar_xdr4curr9generated5ScValINtNtCskzPJi2J8k3N_4core7convert7TryFromRNtB6_13HealthMetricsE8try_from
FN:78,_RNvXsL_CsdOFgf7y8b0U_18attestation_engineNtNtNtCs6Rj5jpQNCXl_11stellar_xdr4curr9generated5ScValINtNtCskzPJi2J8k3N_4core7convert7TryFromRNtB5_15CommitmentRulesE8try_from
FN:88,_RNvXsZ_CsdOFgf7y8b0U_18attestation_engineNtNtNtCs6Rj5jpQNCXl_11stellar_xdr4curr9generated5ScValINtNtCskzPJi2J8k3N_4core7convert7TryFromRNtB5_10CommitmentE8try_from
FN:40,_RNvXso_CsdOFgf7y8b0U_18attestation_engineNtNtNtCs6Rj5jpQNCXl_11stellar_xdr4curr9generated5ScValINtNtCskzPJi2J8k3N_4core7convert7TryFromRNtB5_7DataKeyE8try_from
FN:66,_RNvXsx_CsdOFgf7y8b0U_18attestation_engineNtNtNtCs6Rj5jpQNCXl_11stellar_xdr4curr9generated5ScValINtNtCskzPJi2J8k3N_4core7convert7TryFromRNtB5_11AttestationE8try_from
FN:130,_RNvMs1o_CsdOFgf7y8b0U_18attestation_engineNtB6_25AttestationEngineContract10initialize
FN:227,_RNvMs1o_CsdOFgf7y8b0U_18attestation_engineNtB6_25AttestationEngineContract11is_verifier
FN:781,_RNvMs1o_CsdOFgf7y8b0U_18attestation_engineNtB6_25AttestationEngineContract11record_fees
FN:152,_RNvMs1o_CsdOFgf7y8b0U_18attestation_engineNtB6_25AttestationEngineContract12add_verifier
FN:869,_RNvMs1o_CsdOFgf7y8b0U_18attestation_engineNtB6_25AttestationEngineContract14i128_to_string
FN:1113,_RNvMs1o_CsdOFgf7y8b0U_18attestation_engineNtB6_25AttestationEngineContract14set_rate_limit
FN:817,_RNvMs1o_CsdOFgf7y8b0U_18attestation_engineNtB6_25AttestationEngineContract15record_drawdown
FN:182,_RNvMs1o_CsdOFgf7y8b0U_18attestation_engineNtB6_25AttestationEngineContract15remove_verifier
FN:610,_RNvMs1o_CsdOFgf7y8b0U_18attestation_engineNtB6_25AttestationEngineContract16get_attestations
FN:299,_RNvMs1o_CsdOFgf7y8b0U_18attestation_engineNtB6_25AttestationEngineContract17commitment_exists
FN:240,_RNvMs1o_CsdOFgf7y8b0U_18attestation_engineNtB6_25AttestationEngineContract17get_core_contract
FN:727,_RNvMs1o_CsdOFgf7y8b0U_18attestation_engineNtB6_25AttestationEngineContract17verify_compliance
FN:629,_RNvMs1o_CsdOFgf7y8b0U_18attestation_engineNtB6_25AttestationEngineContract18get_health_metrics
FN:620,_RNvMs1o_CsdOFgf7y8b0U_18attestation_engineNtB6_25AttestationEngineContract21get_attestation_count
FN:1137,_RNvMs1o_CsdOFgf7y8b0U_18attestation_engineNtB6_25AttestationEngineContract21set_rate_limit_exempt
FN:330,_RNvMs1o_CsdOFgf7y8b0U_18attestation_engineNtB6_25AttestationEngineContract21update_health_metrics
FN:208,_RNvMs1o_CsdOFgf7y8b0U_18attestation_engineNtB6_25AttestationEngineContract22is_authorized_verifier
FN:420,_RNvMs1o_CsdOFgf7y8b0U_18attestation_engineNtB6_25AttestationEngineContract22parse_i128_from_string
FN:1059,_RNvMs1o_CsdOFgf7y8b0U_18attestation_engineNtB6_25AttestationEngineContract23get_protocol_statistics
FN:1102,_RNvMs1o_CsdOFgf7y8b0U_18attestation_engineNtB6_25AttestationEngineContract23get_verifier_statistics
FN:248,_RNvMs1o_CsdOFgf7y8b0U_18attestation_engineNtB6_25AttestationEngineContract25get_stored_health_metrics
FN:260,_RNvMs1o_CsdOFgf7y8b0U_18attestation_engineNtB6_25AttestationEngineContract25is_valid_attestation_type
FN:271,_RNvMs1o_CsdOFgf7y8b0U_18attestation_engineNtB6_25AttestationEngineContract25validate_attestation_data
FN:925,_RNvMs1o_CsdOFgf7y8b0U_18attestation_engineNtB6_25AttestationEngineContract26calculate_compliance_score
FN:480,_RNvMs1o_CsdOFgf7y8b0U_18attestation_engineNtB6_25AttestationEngineContract6attest
FN:232,_RNvMs1o_CsdOFgf7y8b0U_18attestation_engineNtB6_25AttestationEngineContract9get_admin
FNDA:23,_RNCNvMs1o_CsdOFgf7y8b0U_18attestation_engineNtB8_25AttestationEngineContract16get_attestations0B8_
FNDA:16,_RNCNvMs1o_CsdOFgf7y8b0U_18attestation_engineNtB8_25AttestationEngineContract21update_health_metrics0B8_
FNDA:0,_RNCNvMs1o_CsdOFgf7y8b0U_18attestation_engineNtB8_25AttestationEngineContract26calculate_compliance_score0B8_
FNDA:16,_RNCNvMs1o_CsdOFgf7y8b0U_18attestation_engineNtB8_25AttestationEngineContract6attest0B8_
FNDA:0,_RNvXs1d_CsdOFgf7y8b0U_18attestation_engineNtNtNtCs6Rj5jpQNCXl_11stellar_xdr4curr9generated5ScValINtNtCskzPJi2J8k3N_4core7convert7TryFromRNtB6_13HealthMetricsE8try_from
FNDA:0,_RNvXsL_CsdOFgf7y8b0U_18attestation_engineNtNtNtCs6Rj5jpQNCXl_11stellar_xdr4curr9generated5ScValINtNtCskzPJi2J8k3N_4core7convert7TryFromRNtB5_15CommitmentRulesE8try_from
FNDA:0,_RNvXsZ_CsdOFgf7y8b0U_18attestation_engineNtNtNtCs6Rj5jpQNCXl_11stellar_xdr4curr9generated5ScValINtNtCskzPJi2J8k3N_4core7convert7TryFromRNtB5_10CommitmentE8try_from
FNDA:0,_RNvXso_CsdOFgf7y8b0U_18attestation_engineNtNtNtCs6Rj5jpQNCXl_11stellar_xdr4curr9generated5ScValINtNtCskzPJi2J8k3N_4core7convert7TryFromRNtB5_7DataKeyE8try_from
FNDA:0,_RNvXsx_CsdOFgf7y8b0U_18attestation_engineNtNtNtCs6Rj5jpQNCXl_11stellar_xdr4curr9generated5ScValINtNtCskzPJi2J8k3N_4core7convert7TryFromRNtB5_11AttestationE8try_from
FNDA:43,_RNvMs1o_CsdOFgf7y8b0U_18attestation_engineNtB6_25AttestationEngineContract10initialize
FNDA:2,_RNvMs1o_CsdOFgf7y8b0U_18attestation_engineNtB6_25AttestationEngineContract11is_verifier
FNDA:1,_RNvMs1o_CsdOFgf7y8b0U_18attestation_engineNtB6_25AttestationEngineContract11record_fees
FNDA:4,_RNvMs1o_CsdOFgf7y8b0U_18attestation_engineNtB6_25AttestationEngineContract12add_verifier
FNDA:3,_RNvMs1o_CsdOFgf7y8b0U_18attestation_engineNtB6_25AttestationEngineContract14i128_to_string
FNDA:1,_RNvMs1o_CsdOFgf7y8b0U_18attestation_engineNtB6_25AttestationEngineContract14set_rate_limit
FNDA:1,_RNvMs1o_CsdOFgf7y8b0U_18attestation_engineNtB6_25AttestationEngineContract15record_drawdown
FNDA:1,_RNvMs1o_CsdOFgf7y8b0U_18attestation_engineNtB6_25AttestationEngineContract15remove_verifier
FNDA:28,_RNvMs1o_CsdOFgf7y8b0U_18attestation_engineNtB6_25AttestationEngineContract16get_attestations
FNDA:24,_RNvMs1o_CsdOFgf7y8b0U_18attestation_engineNtB6_25AttestationEngineContract17commitment_exists
FNDA:1,_RNvMs1o_CsdOFgf7y8b0U_18attestation_engineNtB6_25AttestationEngineContract17get_core_contract
FNDA:0,_RNvMs1o_CsdOFgf7y8b0U_18attestation_engineNtB6_25AttestationEngineContract17verify_compliance
FNDA:8,_RNvMs1o_CsdOFgf7y8b0U_18attestation_engineNtB6_25AttestationEngineContract18get_health_metrics
FNDA:1,_RNvMs1o_CsdOFgf7y8b0U_18attestation_engineNtB6_25AttestationEngineContract21get_attestation_count
FNDA:0,_RNvMs1o_CsdOFgf7y8b0U_18attestation_engineNtB6_25AttestationEngineContract21set_rate_limit_exempt
FNDA:20,_RNvMs1o_CsdOFgf7y8b0U_18attestation_engineNtB6_25AttestationEngineContract21update_health_metrics
FNDA:29,_RNvMs1o_CsdOFgf7y8b0U_18attestation_engineNtB6_25AttestationEngineContract22is_authorized_verifier
FNDA:7,_RNvMs1o_CsdOFgf7y8b0U_18attestation_engineNtB6_25AttestationEngineContract22parse_i128_from_string
FNDA:1,_RNvMs1o_CsdOFgf7y8b0U_18attestation_engineNtB6_25AttestationEngineContract23get_protocol_statistics
FNDA:0,_RNvMs1o_CsdOFgf7y8b0U_18attestation_engineNtB6_25AttestationEngineContract23get_verifier_statistics
FNDA:5,_RNvMs1o_CsdOFgf7y8b0U_18attestation_engineNtB6_25AttestationEngineContract25get_stored_health_metrics
FNDA:24,_RNvMs1o_CsdOFgf7y8b0U_18attestation_engineNtB6_25AttestationEngineContract25is_valid_attestation_type
FNDA:23,_RNvMs1o_CsdOFgf7y8b0U_18attestation_engineNtB6_25AttestationEngineContract25validate_attestation_data
FNDA:12,_RNvMs1o_CsdOFgf7y8b0U_18attestation_engineNtB6_25AttestationEngineContract26calculate_compliance_score
FNDA:28,_RNvMs1o_CsdOFgf7y8b0U_18attestation_engineNtB6_25AttestationEngineContract6attest
FNDA:1,_RNvMs1o_CsdOFgf7y8b0U_18attestation_engineNtB6_25AttestationEngineContract9get_admin
FNF:35
FNH:26
DA:40,0
DA:66,0
DA:78,0
DA:88,0
DA:103,0
DA:130,43
DA:132,43
DA:133,1
DA:134,42
DA:137,42
DA:138,42
DA:140,42
DA:141,43
DA:152,4
DA:153,4
DA:156,4
DA:157,4
DA:158,4
DA:159,4
DA:161,4
DA:162,1
DA:163,3
DA:166,3
DA:169,3
DA:170,3
DA:171,3
DA:174,3
DA:175,4
DA:182,1
DA:183,1
DA:186,1
DA:187,1
DA:188,1
DA:189,1
DA:191,1
DA:192,0
DA:193,1
DA:196,1
DA:199,1
DA:200,1
DA:201,1
DA:204,1
DA:205,1
DA:208,29
DA:210,29
DA:211,29
DA:212,29
DA:214,29
DA:215,25
DA:216,4
DA:217,0
DA:220,4
DA:221,4
DA:222,4
DA:223,4
DA:224,29
DA:227,2
DA:228,2
DA:229,2
DA:232,1
DA:233,1
DA:234,1
DA:235,1
DA:236,1
DA:237,1
DA:240,1
DA:241,1
DA:242,1
DA:243,1
DA:244,1
DA:245,1
DA:248,5
DA:249,5
DA:250,5
DA:251,5
DA:252,5
DA:253,5
DA:260,24
DA:261,24
DA:262,24
DA:263,24
DA:264,24
DA:266,24
DA:267,10
DA:268,24
DA:271,23
DA:272,23
DA:273,23
DA:274,23
DA:275,23
DA:277,23
DA:279,11
DA:280,12
DA:282,3
DA:283,3
DA:284,3
DA:285,9
DA:287,6
DA:288,6
DA:289,3
DA:291,3
DA:292,3
DA:294,0
DA:296,23
DA:299,24
DA:300,24
DA:301,24
DA:302,24
DA:304,24
DA:305,0
DA:309,24
DA:310,24
DA:313,24
DA:314,24
DA:315,24
DA:316,24
DA:319,24
DA:320,24
DA:321,0
DA:323,24
DA:330,20
DA:331,20
DA:332,20
DA:333,20
DA:334,20
DA:336,20
DA:337,20
DA:338,20
DA:339,20
DA:340,20
DA:341,16
DA:349,16
DA:352,20
DA:355,20
DA:356,20
DA:357,20
DA:359,20
DA:361,5
DA:362,5
DA:364,5
DA:365,5
DA:366,5
DA:367,5
DA:368,5
DA:369,5
DA:370,5
DA:371,5
DA:372,5
DA:373,5
DA:374,5
DA:375,5
DA:376,5
DA:377,5
DA:378,5
DA:379,5
DA:380,0
DA:381,15
DA:383,2
DA:384,2
DA:385,2
DA:386,2
DA:387,2
DA:388,0
DA:389,13
DA:391,2
DA:392,2
DA:393,2
DA:394,2
DA:395,2
DA:396,2
DA:397,0
DA:398,0
DA:400,0
DA:403,0
DA:406,2
DA:407,11
DA:410,20
DA:411,18
DA:412,18
DA:413,18
DA:416,20
DA:417,20
DA:420,7
DA:421,7
DA:422,7
DA:423,0
DA:424,7
DA:427,7
DA:428,7
DA:429,0
DA:430,7
DA:431,7
DA:433,7
DA:434,7
DA:435,7
DA:437,7
DA:438,0
DA:439,0
DA:440,7
DA:442,16
DA:443,16
DA:444,16
DA:445,16
DA:446,16
DA:448,0
DA:452,7
DA:453,0
DA:454,7
DA:456,7
DA:457,7
DA:480,28
DA:481,28
DA:482,28
DA:483,28
DA:484,28
DA:485,28
DA:486,28
DA:487,28
DA:489,28
DA:490,1
DA:491,27
DA:492,27
DA:495,27
DA:498,27
DA:499,1
DA:500,1
DA:501,26
DA:504,26
DA:505,26
DA:508,26
DA:509,1
DA:510,1
DA:511,25
DA:514,25
DA:515,1
DA:516,1
DA:517,24
DA:520,24
DA:521,1
DA:522,1
DA:523,23
DA:526,23
DA:527,3
DA:528,3
DA:529,20
DA:532,20
DA:533,20
DA:534,20
DA:535,20
DA:536,20
DA:537,20
DA:538,20
DA:539,20
DA:540,20
DA:543,20
DA:544,20
DA:545,20
DA:546,20
DA:547,20
DA:549,20
DA:550,20
DA:553,20
DA:556,20
DA:557,20
DA:558,20
DA:559,20
DA:560,20
DA:561,20
DA:564,20
DA:565,20
DA:566,20
DA:567,20
DA:568,20
DA:569,20
DA:570,20
DA:571,20
DA:574,20
DA:575,20
DA:576,2
DA:577,2
DA:578,2
DA:579,2
DA:580,2
DA:581,2
DA:582,2
DA:583,2
DA:584,18
DA:587,20
DA:588,20
DA:589,20
DA:590,20
DA:591,20
DA:592,20
DA:593,20
DA:594,20
DA:595,20
DA:598,20
DA:599,20
DA:600,20
DA:604,20
DA:606,20
DA:607,27
DA:610,28
DA:612,28
DA:613,28
DA:614,28
DA:615,28
DA:616,28
DA:617,28
DA:620,1
DA:621,1
DA:622,1
DA:623,1
DA:624,1
DA:625,1
DA:626,1
DA:629,8
DA:631,8
DA:632,8
DA:633,8
DA:634,8
DA:638,8
DA:639,8
DA:640,8
DA:641,8
DA:642,8
DA:643,8
DA:647,8
DA:650,8
DA:653,8
DA:654,8
DA:658,8
DA:659,7
DA:660,7
DA:661,7
DA:663,1
DA:668,8
DA:669,8
DA:670,8
DA:671,1
DA:673,0
DA:674,0
DA:675,0
DA:676,0
DA:677,0
DA:678,0
DA:679,0
DA:680,0
DA:681,1
DA:690,8
DA:691,8
DA:692,0
DA:693,0
DA:694,0
DA:695,8
DA:698,8
DA:699,8
DA:700,8
DA:701,8
DA:704,8
DA:706,8
DA:707,8
DA:708,8
DA:709,8
DA:710,8
DA:711,8
DA:712,8
DA:713,8
DA:714,8
DA:715,8
DA:716,8
DA:727,0
DA:729,0
DA:730,0
DA:731,0
DA:733,0
DA:734,0
DA:738,0
DA:739,0
DA:740,0
DA:741,0
DA:742,0
DA:743,0
DA:745,0
DA:746,0
DA:749,0
DA:750,0
DA:751,0
DA:755,0
DA:758,0
DA:761,0
DA:762,0
DA:763,0
DA:766,0
DA:767,0
DA:768,0
DA:770,0
DA:771,0
DA:781,1
DA:783,1
DA:784,1
DA:785,1
DA:786,1
DA:790,1
DA:791,1
DA:792,1
DA:793,1
DA:794,1
DA:795,1
DA:797,0
DA:800,1
DA:801,1
DA:802,1
DA:805,1
DA:806,1
DA:817,1
DA:819,1
DA:820,1
DA:821,1
DA:822,1
DA:824,1
DA:825,1
DA:826,1
DA:827,1
DA:828,1
DA:829,1
DA:832,1
DA:833,1
DA:835,1
DA:836,1
DA:839,1
DA:840,1
DA:841,1
DA:842,1
DA:844,1
DA:845,1
DA:846,1
DA:850,1
DA:851,1
DA:852,1
DA:853,1
DA:854,1
DA:855,1
DA:856,1
DA:857,0
DA:860,1
DA:861,1
DA:862,1
DA:865,1
DA:866,1
DA:869,3
DA:870,3
DA:871,0
DA:872,3
DA:874,3
DA:875,3
DA:876,3
DA:877,0
DA:878,3
DA:880,3
DA:881,3
DA:883,9
DA:884,6
DA:885,6
DA:886,6
DA:887,6
DA:888,6
DA:889,6
DA:892,3
DA:893,0
DA:894,0
DA:895,3
DA:898,3
DA:899,3
DA:900,6
DA:901,6
DA:902,6
DA:904,3
DA:905,3
DA:925,12
DA:927,12
DA:928,12
DA:929,12
DA:930,12
DA:932,1
DA:933,11
DA:936,11
DA:937,11
DA:938,11
DA:939,11
DA:943,11
DA:944,11
DA:945,11
DA:946,11
DA:947,11
DA:948,11
DA:952,11
DA:955,11
DA:958,11
DA:961,11
DA:962,11
DA:963,11
DA:964,11
DA:967,11
DA:968,11
DA:969,11
DA:971,11
DA:972,10
DA:973,10
DA:974,10
DA:975,10
DA:978,10
DA:979,0
DA:980,0
DA:981,10
DA:982,1
DA:985,11
DA:988,11
DA:989,11
DA:991,11
DA:992,0
DA:998,0
DA:999,0
DA:1000,0
DA:1001,0
DA:1002,0
DA:1003,0
DA:1007,11
DA:1008,0
DA:1009,0
DA:1011,0
DA:1012,0
DA:1013,11
DA:1016,11
DA:1017,11
DA:1018,11
DA:1020,11
DA:1021,11
DA:1022,11
DA:1026,11
DA:1027,11
DA:1028,11
DA:1031,11
DA:1032,11
DA:1033,11
DA:1034,0
DA:1037,11
DA:1038,0
DA:1039,11
DA:1040,11
DA:1041,11
DA:1044,11
DA:1045,11
DA:1046,11
DA:1049,11
DA:1050,12
DA:1059,1
DA:1060,1
DA:1061,1
DA:1063,1
DA:1064,1
DA:1065,1
DA:1066,1
DA:1067,1
DA:1070,1
DA:1071,1
DA:1072,1
DA:1073,1
DA:1074,1
DA:1076,1
DA:1077,1
DA:1078,1
DA:1080,1
DA:1081,1
DA:1082,1
DA:1083,1
DA:1084,1
DA:1085,1
DA:1086,1
DA:1087,1
DA:1088,1
DA:1089,1
DA:1090,1
DA:1091,1
DA:1092,1
DA:1093,1
DA:1094,1
DA:1096,1
DA:1097,1
DA:1102,0
DA:1103,0
DA:1104,0
DA:1105,0
DA:1106,0
DA:1107,0
DA:1108,0
DA:1113,1
DA:1114,1
DA:1115,1
DA:1116,1
DA:1117,1
DA:1118,1
DA:1119,1
DA:1120,1
DA:1121,1
DA:1122,1
DA:1123,1
DA:1124,1
DA:1125,1
DA:1126,1
DA:1127,0
DA:1128,1
DA:1130,1
DA:1131,1
DA:1132,1
DA:1137,0
DA:1138,0
DA:1139,0
DA:1140,0
DA:1141,0
DA:1142,0
DA:1143,0
DA:1144,0
DA:1145,0
DA:1146,0
DA:1147,0
DA:1148,0
DA:1149,0
DA:1150,0
DA:1151,0
DA:1153,0
DA:1154,0
DA:1155,0
BRF:0
BRH:0
LF:636
LH:528
end_of_record
SF:/Users/mac/Documents/DripsOS/Commitlabs-Contracts/contracts/commitment_core/src/lib.rs
FN:63,_RNvXs10_Cs8QBgRFwB2vy_15commitment_coreNtNtNtCs6Rj5jpQNCXl_11stellar_xdr4curr9generated5ScValINtNtCskzPJi2J8k3N_4core7convert7TryFromRNtB6_7DataKeyE8try_from
FN:48,_RNvXsM_Cs8QBgRFwB2vy_15commitment_coreNtNtNtCs6Rj5jpQNCXl_11stellar_xdr4curr9generated5ScValINtNtCskzPJi2J8k3N_4core7convert7TryFromRNtB5_10CommitmentE8try_from
FN:26,_RNvXso_Cs8QBgRFwB2vy_15commitment_coreNtNtNtCs6Rj5jpQNCXl_11stellar_xdr4curr9generated5ScValINtNtCskzPJi2J8k3N_4core7convert7TryFromRNtB5_22CommitmentCreatedEventE8try_from
FN:38,_RNvXsy_Cs8QBgRFwB2vy_15commitment_coreNtNtNtCs6Rj5jpQNCXl_11stellar_xdr4curr9generated5ScValINtNtCskzPJi2J8k3N_4core7convert7TryFromRNtB5_15CommitmentRulesE8try_from
FN:158,_RNCNvCs8QBgRFwB2vy_15commitment_core13require_admin0B3_
FN:630,_RNCNvMs17_Cs8QBgRFwB2vy_15commitment_coreNtB8_22CommitmentCoreContract10early_exit0B8_
FN:386,_RNCNvMs17_Cs8QBgRFwB2vy_15commitment_coreNtB8_22CommitmentCoreContract14get_commitment0B8_
FN:464,_RNCNvMs17_Cs8QBgRFwB2vy_15commitment_coreNtB8_22CommitmentCoreContract16check_violations0B8_
FN:426,_RNCNvMs17_Cs8QBgRFwB2vy_15commitment_coreNtB8_22CommitmentCoreContract16get_nft_contract0B8_
FN:284,_RNCNvMs17_Cs8QBgRFwB2vy_15commitment_coreNtB8_22CommitmentCoreContract17create_commitment0B8_
FN:512,_RNCNvMs17_Cs8QBgRFwB2vy_15commitment_coreNtB8_22CommitmentCoreContract21get_violation_details0B8_
FN:554,_RNCNvMs17_Cs8QBgRFwB2vy_15commitment_coreNtB8_22CommitmentCoreContract6settle0B8_
FN:600,_RNCNvMs17_Cs8QBgRFwB2vy_15commitment_coreNtB8_22CommitmentCoreContract6settles_0B8_
FN:703,_RNCNvMs17_Cs8QBgRFwB2vy_15commitment_coreNtB8_22CommitmentCoreContract8allocate0B8_
FN:418,_RNCNvMs17_Cs8QBgRFwB2vy_15commitment_coreNtB8_22CommitmentCoreContract9get_admin0B8_
FN:91,_RNvCs8QBgRFwB2vy_15commitment_core13call_nft_mint
FN:152,_RNvCs8QBgRFwB2vy_15commitment_core13require_admin
FN:129,_RNvCs8QBgRFwB2vy_15commitment_core14has_commitment
FN:123,_RNvCs8QBgRFwB2vy_15commitment_core14set_commitment
FN:117,_RNvCs8QBgRFwB2vy_15commitment_core15read_commitment
FN:76,_RNvCs8QBgRFwB2vy_15commitment_core15transfer_assets
FN:147,_RNvCs8QBgRFwB2vy_15commitment_core20set_reentrancy_guard
FN:136,_RNvCs8QBgRFwB2vy_15commitment_core21require_no_reentrancy
FN:623,_RNvMs17_Cs8QBgRFwB2vy_15commitment_coreNtB6_22CommitmentCoreContract10early_exit
FN:195,_RNvMs17_Cs8QBgRFwB2vy_15commitment_coreNtB6_22CommitmentCoreContract10initialize
FN:430,_RNvMs17_Cs8QBgRFwB2vy_15commitment_coreNtB6_22CommitmentCoreContract12update_value
FN:384,_RNvMs17_Cs8QBgRFwB2vy_15commitment_coreNtB6_22CommitmentCoreContract14get_commitment
FN:745,_RNvMs17_Cs8QBgRFwB2vy_15commitment_coreNtB6_22CommitmentCoreContract14set_rate_limit
FN:170,_RNvMs17_Cs8QBgRFwB2vy_15commitment_coreNtB6_22CommitmentCoreContract14validate_rules
FN:462,_RNvMs17_Cs8QBgRFwB2vy_15commitment_coreNtB6_22CommitmentCoreContract16check_violations
FN:422,_RNvMs17_Cs8QBgRFwB2vy_15commitment_coreNtB6_22CommitmentCoreContract16get_nft_contract
FN:255,_RNvMs17_Cs8QBgRFwB2vy_15commitment_coreNtB6_22CommitmentCoreContract17create_commitment
FN:390,_RNvMs17_Cs8QBgRFwB2vy_15commitment_coreNtB6_22CommitmentCoreContract21get_owner_commitments
FN:398,_RNvMs17_Cs8QBgRFwB2vy_15commitment_coreNtB6_22CommitmentCoreContract21get_total_commitments
FN:507,_RNvMs17_Cs8QBgRFwB2vy_15commitment_coreNtB6_22CommitmentCoreContract21get_violation_details
FN:759,_RNvMs17_Cs8QBgRFwB2vy_15commitment_coreNtB6_22CommitmentCoreContract21set_rate_limit_exempt
FN:183,_RNvMs17_Cs8QBgRFwB2vy_15commitment_coreNtB6_22CommitmentCoreContract22generate_commitment_id
FN:406,_RNvMs17_Cs8QBgRFwB2vy_15commitment_coreNtB6_22CommitmentCoreContract22get_total_value_locked
FN:547,_RNvMs17_Cs8QBgRFwB2vy_15commitment_coreNtB6_22CommitmentCoreContract6settle
FN:687,_RNvMs17_Cs8QBgRFwB2vy_15commitment_coreNtB6_22CommitmentCoreContract8allocate
FN:414,_RNvMs17_Cs8QBgRFwB2vy_15commitment_coreNtB6_22CommitmentCoreContract9get_admin
FN:63,_RNvXs10_CsbVPyjQYeh3F_15commitment_coreNtNtNtCs6Rj5jpQNCXl_11stellar_xdr4curr9generated5ScValINtNtCskzPJi2J8k3N_4core7convert7TryFromRNtB6_7DataKeyE8try_from
FN:48,_RNvXsM_CsbVPyjQYeh3F_15commitment_coreNtNtNtCs6Rj5jpQNCXl_11stellar_xdr4curr9generated5ScValINtNtCskzPJi2J8k3N_4core7convert7TryFromRNtB5_10CommitmentE8try_from
FN:26,_RNvXso_CsbVPyjQYeh3F_15commitment_coreNtNtNtCs6Rj5jpQNCXl_11stellar_xdr4curr9generated5ScValINtNtCskzPJi2J8k3N_4core7convert7TryFromRNtB5_22CommitmentCreatedEventE8try_from
FN:38,_RNvXsy_CsbVPyjQYeh3F_15commitment_coreNtNtNtCs6Rj5jpQNCXl_11stellar_xdr4curr9generated5ScValINtNtCskzPJi2J8k3N_4core7convert7TryFromRNtB5_15CommitmentRulesE8try_from
FN:91,_RNvCsbVPyjQYeh3F_15commitment_core13call_nft_mint
FN:152,_RNvCsbVPyjQYeh3F_15commitment_core13require_admin
FN:129,_RNvCsbVPyjQYeh3F_15commitment_core14has_commitment
FN:123,_RNvCsbVPyjQYeh3F_15commitment_core14set_commitment
FN:117,_RNvCsbVPyjQYeh3F_15commitment_core15read_commitment
FN:76,_RNvCsbVPyjQYeh3F_15commitment_core15transfer_assets
FN:147,_RNvCsbVPyjQYeh3F_15commitment_core20set_reentrancy_guard
FN:136,_RNvCsbVPyjQYeh3F_15commitment_core21require_no_reentrancy
FN:623,_RNvMs17_CsbVPyjQYeh3F_15commitment_coreNtB6_22CommitmentCoreContract10early_exit
FN:195,_RNvMs17_CsbVPyjQYeh3F_15commitment_coreNtB6_22CommitmentCoreContract10initialize
FN:430,_RNvMs17_CsbVPyjQYeh3F_15commitment_coreNtB6_22CommitmentCoreContract12update_value
FN:384,_RNvMs17_CsbVPyjQYeh3F_15commitment_coreNtB6_22CommitmentCoreContract14get_commitment
FN:745,_RNvMs17_CsbVPyjQYeh3F_15commitment_coreNtB6_22CommitmentCoreContract14set_rate_limit
FN:170,_RNvMs17_CsbVPyjQYeh3F_15commitment_coreNtB6_22CommitmentCoreContract14validate_rules
FN:462,_RNvMs17_CsbVPyjQYeh3F_15commitment_coreNtB6_22CommitmentCoreContract16check_violations
FN:422,_RNvMs17_CsbVPyjQYeh3F_15commitment_coreNtB6_22CommitmentCoreContract16get_nft_contract
FN:255,_RNvMs17_CsbVPyjQYeh3F_15commitment_coreNtB6_22CommitmentCoreContract17create_commitment
FN:390,_RNvMs17_CsbVPyjQYeh3F_15commitment_coreNtB6_22CommitmentCoreContract21get_owner_commitments
FN:398,_RNvMs17_CsbVPyjQYeh3F_15commitment_coreNtB6_22CommitmentCoreContract21get_total_commitments
FN:507,_RNvMs17_CsbVPyjQYeh3F_15commitment_coreNtB6_22CommitmentCoreContract21get_violation_details
FN:759,_RNvMs17_CsbVPyjQYeh3F_15commitment_coreNtB6_22CommitmentCoreContract21set_rate_limit_exempt
FN:183,_RNvMs17_CsbVPyjQYeh3F_15commitment_coreNtB6_22CommitmentCoreContract22generate_commitment_id
FN:406,_RNvMs17_CsbVPyjQYeh3F_15commitment_coreNtB6_22CommitmentCoreContract22get_total_value_locked
FN:547,_RNvMs17_CsbVPyjQYeh3F_15commitment_coreNtB6_22CommitmentCoreContract6settle
FN:687,_RNvMs17_CsbVPyjQYeh3F_15commitment_coreNtB6_22CommitmentCoreContract8allocate
FN:414,_RNvMs17_CsbVPyjQYeh3F_15commitment_coreNtB6_22CommitmentCoreContract9get_admin
FN:158,_RNCNvCsbVPyjQYeh3F_15commitment_core13require_admin0B3_
FN:630,_RNCNvMs17_CsbVPyjQYeh3F_15commitment_coreNtB8_22CommitmentCoreContract10early_exit0B8_
FN:386,_RNCNvMs17_CsbVPyjQYeh3F_15commitment_coreNtB8_22CommitmentCoreContract14get_commitment0B8_
FN:464,_RNCNvMs17_CsbVPyjQYeh3F_15commitment_coreNtB8_22CommitmentCoreContract16check_violations0B8_
FN:426,_RNCNvMs17_CsbVPyjQYeh3F_15commitment_coreNtB8_22CommitmentCoreContract16get_nft_contract0B8_
FN:284,_RNCNvMs17_CsbVPyjQYeh3F_15commitment_coreNtB8_22CommitmentCoreContract17create_commitment0B8_
FN:512,_RNCNvMs17_CsbVPyjQYeh3F_15commitment_coreNtB8_22CommitmentCoreContract21get_violation_details0B8_
FN:554,_RNCNvMs17_CsbVPyjQYeh3F_15commitment_coreNtB8_22CommitmentCoreContract6settle0B8_
FN:600,_RNCNvMs17_CsbVPyjQYeh3F_15commitment_coreNtB8_22CommitmentCoreContract6settles_0B8_
FN:703,_RNCNvMs17_CsbVPyjQYeh3F_15commitment_coreNtB8_22CommitmentCoreContract8allocate0B8_
FN:418,_RNCNvMs17_CsbVPyjQYeh3F_15commitment_coreNtB8_22CommitmentCoreContract9get_admin0B8_
FNDA:0,_RNvXs10_Cs8QBgRFwB2vy_15commitment_coreNtNtNtCs6Rj5jpQNCXl_11stellar_xdr4curr9generated5ScValINtNtCskzPJi2J8k3N_4core7convert7TryFromRNtB6_7DataKeyE8try_from
FNDA:0,_RNvXsM_Cs8QBgRFwB2vy_15commitment_coreNtNtNtCs6Rj5jpQNCXl_11stellar_xdr4curr9generated5ScValINtNtCskzPJi2J8k3N_4core7convert7TryFromRNtB5_10CommitmentE8try_from
FNDA:0,_RNvXso_Cs8QBgRFwB2vy_15commitment_coreNtNtNtCs6Rj5jpQNCXl_11stellar_xdr4curr9generated5ScValINtNtCskzPJi2J8k3N_4core7convert7TryFromRNtB5_22CommitmentCreatedEventE8try_from
FNDA:0,_RNvXsy_Cs8QBgRFwB2vy_15commitment_coreNtNtNtCs6Rj5jpQNCXl_11stellar_xdr4curr9generated5ScValINtNtCskzPJi2J8k3N_4core7convert7TryFromRNtB5_15CommitmentRulesE8try_from
FNDA:0,_RNCNvCs8QBgRFwB2vy_15commitment_core13require_admin0B3_
FNDA:0,_RNCNvMs17_Cs8QBgRFwB2vy_15commitment_coreNtB8_22CommitmentCoreContract10early_exit0B8_
FNDA:0,_RNCNvMs17_Cs8QBgRFwB2vy_15commitment_coreNtB8_22CommitmentCoreContract14get_commitment0B8_
FNDA:0,_RNCNvMs17_Cs8QBgRFwB2vy_15commitment_coreNtB8_22CommitmentCoreContract16check_violations0B8_
FNDA:0,_RNCNvMs17_Cs8QBgRFwB2vy_15commitment_coreNtB8_22CommitmentCoreContract16get_nft_contract0B8_
FNDA:0,_RNCNvMs17_Cs8QBgRFwB2vy_15commitment_coreNtB8_22CommitmentCoreContract17create_commitment0B8_
FNDA:0,_RNCNvMs17_Cs8QBgRFwB2vy_15commitment_coreNtB8_22CommitmentCoreContract21get_violation_details0B8_
FNDA:0,_RNCNvMs17_Cs8QBgRFwB2vy_15commitment_coreNtB8_22CommitmentCoreContract6settle0B8_
FNDA:0,_RNCNvMs17_Cs8QBgRFwB2vy_15commitment_coreNtB8_22CommitmentCoreContract6settles_0B8_
FNDA:0,_RNCNvMs17_Cs8QBgRFwB2vy_15commitment_coreNtB8_22CommitmentCoreContract8allocate0B8_
FNDA:0,_RNCNvMs17_Cs8QBgRFwB2vy_15commitment_coreNtB8_22CommitmentCoreContract9get_admin0B8_
FNDA:0,_RNvCs8QBgRFwB2vy_15commitment_core13call_nft_mint
FNDA:0,_RNvCs8QBgRFwB2vy_15commitment_core13require_admin
FNDA:0,_RNvCs8QBgRFwB2vy_15commitment_core14has_commitment
FNDA:0,_RNvCs8QBgRFwB2vy_15commitment_core14set_commitment
FNDA:44,_RNvCs8QBgRFwB2vy_15commitment_core15read_commitment
FNDA:0,_RNvCs8QBgRFwB2vy_15commitment_core15transfer_assets
FNDA:0,_RNvCs8QBgRFwB2vy_15commitment_core20set_reentrancy_guard
FNDA:0,_RNvCs8QBgRFwB2vy_15commitment_core21require_no_reentrancy
FNDA:0,_RNvMs17_Cs8QBgRFwB2vy_15commitment_coreNtB6_22CommitmentCoreContract10early_exit
FNDA:42,_RNvMs17_Cs8QBgRFwB2vy_15commitment_coreNtB6_22CommitmentCoreContract10initialize
FNDA:0,_RNvMs17_Cs8QBgRFwB2vy_15commitment_coreNtB6_22CommitmentCoreContract12update_value
FNDA:44,_RNvMs17_Cs8QBgRFwB2vy_15commitment_coreNtB6_22CommitmentCoreContract14get_commitment
FNDA:0,_RNvMs17_Cs8QBgRFwB2vy_15commitment_coreNtB6_22CommitmentCoreContract14set_rate_limit
FNDA:0,_RNvMs17_Cs8QBgRFwB2vy_15commitment_coreNtB6_22CommitmentCoreContract14validate_rules
FNDA:0,_RNvMs17_Cs8QBgRFwB2vy_15commitment_coreNtB6_22CommitmentCoreContract16check_violations
FNDA:0,_RNvMs17_Cs8QBgRFwB2vy_15commitment_coreNtB6_22CommitmentCoreContract16get_nft_contract
FNDA:0,_RNvMs17_Cs8QBgRFwB2vy_15commitment_coreNtB6_22CommitmentCoreContract17create_commitment
FNDA:0,_RNvMs17_Cs8QBgRFwB2vy_15commitment_coreNtB6_22CommitmentCoreContract21get_owner_commitments
FNDA:1,_RNvMs17_Cs8QBgRFwB2vy_15commitment_coreNtB6_22CommitmentCoreContract21get_total_commitments
FNDA:0,_RNvMs17_Cs8QBgRFwB2vy_15commitment_coreNtB6_22CommitmentCoreContract21get_violation_details
FNDA:0,_RNvMs17_Cs8QBgRFwB2vy_15commitment_coreNtB6_22CommitmentCoreContract21set_rate_limit_exempt
FNDA:0,_RNvMs17_Cs8QBgRFwB2vy_15commitment_coreNtB6_22CommitmentCoreContract22generate_commitment_id
FNDA:0,_RNvMs17_Cs8QBgRFwB2vy_15commitment_coreNtB6_22CommitmentCoreContract22get_total_value_locked
FNDA:0,_RNvMs17_Cs8QBgRFwB2vy_15commitment_coreNtB6_22CommitmentCoreContract6settle
FNDA:0,_RNvMs17_Cs8QBgRFwB2vy_15commitment_coreNtB6_22CommitmentCoreContract8allocate
FNDA:0,_RNvMs17_Cs8QBgRFwB2vy_15commitment_coreNtB6_22CommitmentCoreContract9get_admin
FNDA:0,_RNvXs10_CsbVPyjQYeh3F_15commitment_coreNtNtNtCs6Rj5jpQNCXl_11stellar_xdr4curr9generated5ScValINtNtCskzPJi2J8k3N_4core7convert7TryFromRNtB6_7DataKeyE8try_from
FNDA:0,_RNvXsM_CsbVPyjQYeh3F_15commitment_coreNtNtNtCs6Rj5jpQNCXl_11stellar_xdr4curr9generated5ScValINtNtCskzPJi2J8k3N_4core7convert7TryFromRNtB5_10CommitmentE8try_from
FNDA:0,_RNvXso_CsbVPyjQYeh3F_15commitment_coreNtNtNtCs6Rj5jpQNCXl_11stellar_xdr4curr9generated5ScValINtNtCskzPJi2J8k3N_4core7convert7TryFromRNtB5_22CommitmentCreatedEventE8try_from
FNDA:0,_RNvXsy_CsbVPyjQYeh3F_15commitment_coreNtNtNtCs6Rj5jpQNCXl_11stellar_xdr4curr9generated5ScValINtNtCskzPJi2J8k3N_4core7convert7TryFromRNtB5_15CommitmentRulesE8try_from
FNDA:0,_RNvCsbVPyjQYeh3F_15commitment_core13call_nft_mint
FNDA:1,_RNvCsbVPyjQYeh3F_15commitment_core13require_admin
FNDA:0,_RNvCsbVPyjQYeh3F_15commitment_core14has_commitment
FNDA:10,_RNvCsbVPyjQYeh3F_15commitment_core14set_commitment
FNDA:14,_RNvCsbVPyjQYeh3F_15commitment_core15read_commitment
FNDA:0,_RNvCsbVPyjQYeh3F_15commitment_core15transfer_assets
FNDA:6,_RNvCsbVPyjQYeh3F_15commitment_core20set_reentrancy_guard
FNDA:3,_RNvCsbVPyjQYeh3F_15commitment_core21require_no_reentrancy
FNDA:1,_RNvMs17_CsbVPyjQYeh3F_15commitment_coreNtB6_22CommitmentCoreContract10early_exit
FNDA:8,_RNvMs17_CsbVPyjQYeh3F_15commitment_coreNtB6_22CommitmentCoreContract10initialize
FNDA:3,_RNvMs17_CsbVPyjQYeh3F_15commitment_coreNtB6_22CommitmentCoreContract12update_value
FNDA:0,_RNvMs17_CsbVPyjQYeh3F_15commitment_coreNtB6_22CommitmentCoreContract14get_commitment
FNDA:1,_RNvMs17_CsbVPyjQYeh3F_15commitment_coreNtB6_22CommitmentCoreContract14set_rate_limit
FNDA:4,_RNvMs17_CsbVPyjQYeh3F_15commitment_coreNtB6_22CommitmentCoreContract14validate_rules
FNDA:8,_RNvMs17_CsbVPyjQYeh3F_15commitment_coreNtB6_22CommitmentCoreContract16check_violations
FNDA:1,_RNvMs17_CsbVPyjQYeh3F_15commitment_coreNtB6_22CommitmentCoreContract16get_nft_contract
FNDA:0,_RNvMs17_CsbVPyjQYeh3F_15commitment_coreNtB6_22CommitmentCoreContract17create_commitment
FNDA:1,_RNvMs17_CsbVPyjQYeh3F_15commitment_coreNtB6_22CommitmentCoreContract21get_owner_commitments
FNDA:1,_RNvMs17_CsbVPyjQYeh3F_15commitment_coreNtB6_22CommitmentCoreContract21get_total_commitments
FNDA:3,_RNvMs17_CsbVPyjQYeh3F_15commitment_coreNtB6_22CommitmentCoreContract21get_violation_details
FNDA:0,_RNvMs17_CsbVPyjQYeh3F_15commitment_coreNtB6_22CommitmentCoreContract21set_rate_limit_exempt
FNDA:0,_RNvMs17_CsbVPyjQYeh3F_15commitment_coreNtB6_22CommitmentCoreContract22generate_commitment_id
FNDA:0,_RNvMs17_CsbVPyjQYeh3F_15commitment_coreNtB6_22CommitmentCoreContract22get_total_value_locked
FNDA:1,_RNvMs17_CsbVPyjQYeh3F_15commitment_coreNtB6_22CommitmentCoreContract6settle
FNDA:1,_RNvMs17_CsbVPyjQYeh3F_15commitment_coreNtB6_22CommitmentCoreContract8allocate
FNDA:1,_RNvMs17_CsbVPyjQYeh3F_15commitment_coreNtB6_22CommitmentCoreContract9get_admin
FNDA:0,_RNCNvCsbVPyjQYeh3F_15commitment_core13require_admin0B3_
FNDA:1,_RNCNvMs17_CsbVPyjQYeh3F_15commitment_coreNtB8_22CommitmentCoreContract10early_exit0B8_
FNDA:0,_RNCNvMs17_CsbVPyjQYeh3F_15commitment_coreNtB8_22CommitmentCoreContract14get_commitment0B8_
FNDA:1,_RNCNvMs17_CsbVPyjQYeh3F_15commitment_coreNtB8_22CommitmentCoreContract16check_violations0B8_
FNDA:0,_RNCNvMs17_CsbVPyjQYeh3F_15commitment_coreNtB8_22CommitmentCoreContract16get_nft_contract0B8_
FNDA:0,_RNCNvMs17_CsbVPyjQYeh3F_15commitment_coreNtB8_22CommitmentCoreContract17create_commitment0B8_
FNDA:0,_RNCNvMs17_CsbVPyjQYeh3F_15commitment_coreNtB8_22CommitmentCoreContract21get_violation_details0B8_
FNDA:1,_RNCNvMs17_CsbVPyjQYeh3F_15commitment_coreNtB8_22CommitmentCoreContract6settle0B8_
FNDA:0,_RNCNvMs17_CsbVPyjQYeh3F_15commitment_coreNtB8_22CommitmentCoreContract6settles_0B8_
FNDA:1,_RNCNvMs17_CsbVPyjQYeh3F_15commitment_coreNtB8_22CommitmentCoreContract8allocate0B8_
FNDA:0,_RNCNvMs17_CsbVPyjQYeh3F_15commitment_coreNtB8_22CommitmentCoreContract9get_admin0B8_
FNF:41
FNH:23
DA:26,0
DA:38,0
DA:48,0
DA:63,0
DA:76,0
DA:77,0
DA:80,0
DA:81,0
DA:82,0
DA:83,0
DA:84,0
DA:87,0
DA:88,0
DA:91,0
DA:92,0
DA:93,0
DA:94,0
DA:95,0
DA:96,0
DA:97,0
DA:98,0
DA:99,0
DA:100,0
DA:101,0
DA:102,0
DA:103,0
DA:104,0
DA:105,0
DA:106,0
DA:107,0
DA:108,0
DA:109,0
DA:113,0
DA:114,0
DA:117,58
DA:118,58
DA:119,58
DA:120,58
DA:121,58
DA:123,10
DA:124,10
DA:125,10
DA:126,10
DA:127,10
DA:129,0
DA:130,0
DA:131,0
DA:132,0
DA:133,0
DA:136,3
DA:137,3
DA:138,3
DA:139,3
DA:140,3
DA:142,3
DA:143,0
DA:144,3
DA:145,3
DA:147,6
DA:148,6
DA:149,6
DA:152,1
DA:153,1
DA:154,1
DA:155,1
DA:156,1
DA:157,1
DA:158,1
DA:159,1
DA:160,0
DA:161,1
DA:162,1
DA:170,4
DA:172,4
DA:175,4
DA:178,4
DA:179,4
DA:180,4
DA:183,0
DA:184,0
DA:185,0
DA:186,0
DA:187,0
DA:188,0
DA:191,0
DA:192,0
DA:195,50
DA:197,50
DA:198,0
DA:199,50
DA:202,50
DA:203,50
DA:204,50
DA:205,50
DA:208,50
DA:209,50
DA:210,50
DA:213,50
DA:214,50
DA:215,50
DA:216,50
DA:255,0
DA:256,0
DA:257,0
DA:258,0
DA:259,0
DA:260,0
DA:261,0
DA:263,0
DA:264,0
DA:267,0
DA:268,0
DA:271,0
DA:274,0
DA:277,0
DA:280,0
DA:281,0
DA:282,0
DA:283,0
DA:284,0
DA:285,0
DA:286,0
DA:290,0
DA:291,0
DA:292,0
DA:293,0
DA:297,0
DA:298,0
DA:301,0
DA:302,0
DA:303,0
DA:304,0
DA:305,0
DA:306,0
DA:307,0
DA:308,0
DA:309,0
DA:310,0
DA:311,0
DA:312,0
DA:315,0
DA:318,0
DA:319,0
DA:320,0
DA:321,0
DA:322,0
DA:323,0
DA:324,0
DA:325,0
DA:326,0
DA:330,0
DA:331,0
DA:332,0
DA:333,0
DA:334,0
DA:335,0
DA:336,0
DA:337,0
DA:340,0
DA:341,0
DA:342,0
DA:343,0
DA:344,0
DA:345,0
DA:346,0
DA:347,0
DA:351,0
DA:352,0
DA:355,0
DA:356,0
DA:357,0
DA:358,0
DA:359,0
DA:360,0
DA:361,0
DA:362,0
DA:363,0
DA:364,0
DA:368,0
DA:369,0
DA:370,0
DA:373,0
DA:376,0
DA:377,0
DA:378,0
DA:380,0
DA:381,0
DA:384,44
DA:385,44
DA:386,44
DA:387,44
DA:390,1
DA:391,1
DA:392,1
DA:393,1
DA:394,1
DA:395,1
DA:398,2
DA:399,2
DA:400,2
DA:401,2
DA:402,2
DA:403,2
DA:406,0
DA:407,0
DA:408,0
DA:409,0
DA:410,0
DA:411,0
DA:414,1
DA:415,1
DA:416,1
DA:417,1
DA:418,1
DA:419,1
DA:422,1
DA:423,1
DA:424,1
DA:425,1
DA:426,1
DA:427,1
DA:430,3
DA:432,3
DA:433,3
DA:434,3
DA:439,3
DA:440,3
DA:441,3
DA:443,3
DA:462,8
DA:463,8
DA:464,8
DA:467,8
DA:468,8
DA:469,0
DA:470,8
DA:472,8
DA:478,8
DA:479,6
DA:481,2
DA:485,8
DA:486,8
DA:489,8
DA:491,8
DA:493,8
DA:494,4
DA:495,4
DA:496,4
DA:497,4
DA:498,4
DA:499,4
DA:502,8
DA:503,8
DA:507,3
DA:508,3
DA:509,3
DA:510,3
DA:511,3
DA:512,3
DA:514,3
DA:517,3
DA:518,3
DA:519,3
DA:521,0
DA:525,3
DA:526,3
DA:529,3
DA:532,3
DA:533,2
DA:535,1
DA:538,3
DA:540,3
DA:541,3
DA:547,1
DA:549,1
DA:550,1
DA:553,1
DA:554,1
DA:555,1
DA:556,1
DA:560,1
DA:561,1
DA:562,1
DA:563,1
DA:564,0
DA:567,0
DA:568,0
DA:569,0
DA:570,0
DA:571,0
DA:574,0
DA:575,0
DA:576,0
DA:579,0
DA:580,0
DA:581,0
DA:582,0
DA:583,0
DA:584,0
DA:585,0
DA:586,0
DA:587,0
DA:591,0
DA:592,0
DA:593,0
DA:596,0
DA:597,0
DA:598,0
DA:599,0
DA:600,0
DA:601,0
DA:602,0
DA:605,0
DA:606,0
DA:607,0
DA:610,0
DA:613,0
DA:614,0
DA:615,0
DA:617,0
DA:623,1
DA:625,1
DA:626,1
DA:629,1
DA:630,1
DA:631,1
DA:632,1
DA:636,1
DA:637,1
DA:638,1
DA:639,0
DA:642,0
DA:643,0
DA:644,0
DA:645,0
DA:646,0
DA:649,0
DA:650,0
DA:651,0
DA:653,0
DA:654,0
DA:657,0
DA:658,0
DA:659,0
DA:660,0
DA:661,0
DA:662,0
DA:663,0
DA:664,0
DA:665,0
DA:669,0
DA:670,0
DA:671,0
DA:674,0
DA:677,0
DA:678,0
DA:679,0
DA:681,0
DA:687,1
DA:689,1
DA:690,1
DA:693,1
DA:694,1
DA:697,1
DA:698,0
DA:699,0
DA:700,1
DA:702,1
DA:703,1
DA:704,1
DA:705,1
DA:709,1
DA:710,1
DA:711,1
DA:712,1
DA:713,0
DA:716,0
DA:717,0
DA:718,0
DA:719,0
DA:722,0
DA:723,0
DA:724,0
DA:728,0
DA:729,0
DA:730,0
DA:733,0
DA:736,0
DA:737,0
DA:738,0
DA:740,0
DA:745,1
DA:746,1
DA:747,1
DA:748,1
DA:749,1
DA:750,1
DA:751,1
DA:752,1
DA:753,1
DA:754,1
DA:759,0
DA:760,0
DA:761,0
DA:762,0
BRF:0
BRH:0
LF:416
LH:179
end_of_record
SF:/Users/mac/Documents/DripsOS/Commitlabs-Contracts/contracts/commitment_nft/src/lib.rs
FN:499,_RNCNvMsW_CsfwUjyboTP9c_14commitment_nftNtB7_21CommitmentNFTContract6settle0B7_
FN:355,_RNCNvMsW_CsfwUjyboTP9c_14commitment_nftNtB7_21CommitmentNFTContract8transfer0B7_
FN:390,_RNCNvMsW_CsfwUjyboTP9c_14commitment_nftNtB7_21CommitmentNFTContract8transfers_0B7_
FN:62,_RNvXsC_CsfwUjyboTP9c_14commitment_nftNtNtNtCs6Rj5jpQNCXl_11stellar_xdr4curr9generated5ScValINtNtCskzPJi2J8k3N_4core7convert7TryFromRNtB5_13CommitmentNFTE8try_from
FN:73,_RNvXsQ_CsfwUjyboTP9c_14commitment_nftNtNtNtCs6Rj5jpQNCXl_11stellar_xdr4curr9generated5ScValINtNtCskzPJi2J8k3N_4core7convert7TryFromRNtB5_7DataKeyE8try_from
FN:48,_RNvXso_CsfwUjyboTP9c_14commitment_nftNtNtNtCs6Rj5jpQNCXl_11stellar_xdr4curr9generated5ScValINtNtCskzPJi2J8k3N_4core7convert7TryFromRNtB5_18CommitmentMetadataE8try_from
FN:428,_RNvMsW_CsfwUjyboTP9c_14commitment_nftNtB5_21CommitmentNFTContract10balance_of
FN:113,_RNvMsW_CsfwUjyboTP9c_14commitment_nftNtB5_21CommitmentNFTContract10initialize
FN:535,_RNvMsW_CsfwUjyboTP9c_14commitment_nftNtB5_21CommitmentNFTContract10is_expired
FN:311,_RNvMsW_CsfwUjyboTP9c_14commitment_nftNtB5_21CommitmentNFTContract12get_metadata
FN:547,_RNvMsW_CsfwUjyboTP9c_14commitment_nftNtB5_21CommitmentNFTContract12token_exists
FN:423,_RNvMsW_CsfwUjyboTP9c_14commitment_nftNtB5_21CommitmentNFTContract12total_supply
FN:436,_RNvMsW_CsfwUjyboTP9c_14commitment_nftNtB5_21CommitmentNFTContract16get_all_metadata
FN:162,_RNvMsW_CsfwUjyboTP9c_14commitment_nftNtB5_21CommitmentNFTContract17get_core_contract
FN:455,_RNvMsW_CsfwUjyboTP9c_14commitment_nftNtB5_21CommitmentNFTContract17get_nfts_by_owner
FN:142,_RNvMsW_CsfwUjyboTP9c_14commitment_nftNtB5_21CommitmentNFTContract17set_core_contract
FN:133,_RNvMsW_CsfwUjyboTP9c_14commitment_nftNtB5_21CommitmentNFTContract24is_valid_commitment_type
FN:199,_RNvMsW_CsfwUjyboTP9c_14commitment_nftNtB5_21CommitmentNFTContract4mint
FN:482,_RNvMsW_CsfwUjyboTP9c_14commitment_nftNtB5_21CommitmentNFTContract6settle
FN:320,_RNvMsW_CsfwUjyboTP9c_14commitment_nftNtB5_21CommitmentNFTContract8owner_of
FN:335,_RNvMsW_CsfwUjyboTP9c_14commitment_nftNtB5_21CommitmentNFTContract8transfer
FN:170,_RNvMsW_CsfwUjyboTP9c_14commitment_nftNtB5_21CommitmentNFTContract9get_admin
FN:412,_RNvMsW_CsfwUjyboTP9c_14commitment_nftNtB5_21CommitmentNFTContract9is_active
FNDA:0,_RNCNvMsW_CsfwUjyboTP9c_14commitment_nftNtB7_21CommitmentNFTContract6settle0B7_
FNDA:1,_RNCNvMsW_CsfwUjyboTP9c_14commitment_nftNtB7_21CommitmentNFTContract8transfer0B7_
FNDA:3,_RNCNvMsW_CsfwUjyboTP9c_14commitment_nftNtB7_21CommitmentNFTContract8transfers_0B7_
FNDA:0,_RNvXsC_CsfwUjyboTP9c_14commitment_nftNtNtNtCs6Rj5jpQNCXl_11stellar_xdr4curr9generated5ScValINtNtCskzPJi2J8k3N_4core7convert7TryFromRNtB5_13CommitmentNFTE8try_from
FNDA:0,_RNvXsQ_CsfwUjyboTP9c_14commitment_nftNtNtNtCs6Rj5jpQNCXl_11stellar_xdr4curr9generated5ScValINtNtCskzPJi2J8k3N_4core7convert7TryFromRNtB5_7DataKeyE8try_from
FNDA:0,_RNvXso_CsfwUjyboTP9c_14commitment_nftNtNtNtCs6Rj5jpQNCXl_11stellar_xdr4curr9generated5ScValINtNtCskzPJi2J8k3N_4core7convert7TryFromRNtB5_18CommitmentMetadataE8try_from
FNDA:15,_RNvMsW_CsfwUjyboTP9c_14commitment_nftNtB5_21CommitmentNFTContract10balance_of
FNDA:31,_RNvMsW_CsfwUjyboTP9c_14commitment_nftNtB5_21CommitmentNFTContract10initialize
FNDA:4,_RNvMsW_CsfwUjyboTP9c_14commitment_nftNtB5_21CommitmentNFTContract10is_expired
FNDA:3,_RNvMsW_CsfwUjyboTP9c_14commitment_nftNtB5_21CommitmentNFTContract12get_metadata
FNDA:3,_RNvMsW_CsfwUjyboTP9c_14commitment_nftNtB5_21CommitmentNFTContract12token_exists
FNDA:5,_RNvMsW_CsfwUjyboTP9c_14commitment_nftNtB5_21CommitmentNFTContract12total_supply
FNDA:2,_RNvMsW_CsfwUjyboTP9c_14commitment_nftNtB5_21CommitmentNFTContract16get_all_metadata
FNDA:0,_RNvMsW_CsfwUjyboTP9c_14commitment_nftNtB5_21CommitmentNFTContract17get_core_contract
FNDA:5,_RNvMsW_CsfwUjyboTP9c_14commitment_nftNtB5_21CommitmentNFTContract17get_nfts_by_owner
FNDA:0,_RNvMsW_CsfwUjyboTP9c_14commitment_nftNtB5_21CommitmentNFTContract17set_core_contract
FNDA:36,_RNvMsW_CsfwUjyboTP9c_14commitment_nftNtB5_21CommitmentNFTContract24is_valid_commitment_type
FNDA:37,_RNvMsW_CsfwUjyboTP9c_14commitment_nftNtB5_21CommitmentNFTContract4mint
FNDA:4,_RNvMsW_CsfwUjyboTP9c_14commitment_nftNtB5_21CommitmentNFTContract6settle
FNDA:5,_RNvMsW_CsfwUjyboTP9c_14commitment_nftNtB5_21CommitmentNFTContract8owner_of
FNDA:5,_RNvMsW_CsfwUjyboTP9c_14commitment_nftNtB5_21CommitmentNFTContract8transfer
FNDA:3,_RNvMsW_CsfwUjyboTP9c_14commitment_nftNtB5_21CommitmentNFTContract9get_admin
FNDA:4,_RNvMsW_CsfwUjyboTP9c_14commitment_nftNtB5_21CommitmentNFTContract9is_active
FNF:23
FNH:17
DA:48,0
DA:62,0
DA:73,0
DA:113,31
DA:115,31
DA:116,1
DA:117,30
DA:120,30
DA:123,30
DA:126,30
DA:127,30
DA:129,30
DA:130,31
DA:133,36
DA:134,36
DA:135,36
DA:136,36
DA:137,36
DA:138,36
DA:142,0
DA:143,0
DA:144,0
DA:145,0
DA:146,0
DA:147,0
DA:148,0
DA:150,0
DA:151,0
DA:152,0
DA:155,0
DA:156,0
DA:158,0
DA:159,0
DA:162,0
DA:163,0
DA:164,0
DA:165,0
DA:166,0
DA:167,0
DA:170,3
DA:171,3
DA:172,3
DA:173,3
DA:174,3
DA:175,3
DA:199,37
DA:200,37
DA:201,37
DA:202,37
DA:203,37
DA:204,37
DA:205,37
DA:206,37
DA:207,37
DA:208,37
DA:209,37
DA:211,37
DA:212,37
DA:213,37
DA:214,37
DA:216,37
DA:217,0
DA:218,37
DA:219,37
DA:222,37
DA:223,1
DA:224,1
DA:225,36
DA:228,36
DA:229,0
DA:230,0
DA:231,36
DA:232,36
DA:233,0
DA:234,0
DA:235,36
DA:236,36
DA:237,0
DA:238,0
DA:239,36
DA:240,36
DA:241,0
DA:242,0
DA:243,36
DA:247,36
DA:248,36
DA:249,36
DA:252,36
DA:253,36
DA:254,36
DA:257,36
DA:258,36
DA:259,36
DA:260,36
DA:261,36
DA:262,36
DA:263,36
DA:264,36
DA:265,36
DA:266,36
DA:269,36
DA:270,36
DA:271,36
DA:272,36
DA:273,36
DA:274,36
DA:275,36
DA:278,36
DA:281,36
DA:282,36
DA:285,36
DA:286,36
DA:287,36
DA:290,36
DA:291,36
DA:292,36
DA:295,36
DA:298,36
DA:299,36
DA:300,36
DA:303,36
DA:304,37
DA:311,3
DA:312,3
DA:313,3
DA:314,3
DA:315,3
DA:316,3
DA:320,5
DA:321,5
DA:322,5
DA:323,5
DA:324,5
DA:325,5
DA:327,3
DA:328,5
DA:335,5
DA:337,5
DA:338,5
DA:339,5
DA:340,5
DA:342,5
DA:343,0
DA:344,5
DA:345,5
DA:348,5
DA:351,5
DA:352,5
DA:353,5
DA:354,5
DA:355,5
DA:356,1
DA:357,1
DA:358,1
DA:361,4
DA:362,1
DA:363,1
DA:364,3
DA:376,3
DA:377,3
DA:380,3
DA:381,3
DA:382,3
DA:383,3
DA:385,3
DA:386,3
DA:389,3
DA:390,3
DA:391,3
DA:392,3
DA:393,3
DA:395,3
DA:396,3
DA:397,3
DA:400,3
DA:403,3
DA:404,3
DA:405,3
DA:408,3
DA:409,5
DA:412,4
DA:413,4
DA:414,4
DA:415,4
DA:416,4
DA:417,4
DA:419,3
DA:420,4
DA:423,5
DA:424,5
DA:425,5
DA:428,15
DA:429,15
DA:430,15
DA:431,15
DA:432,15
DA:433,15
DA:436,2
DA:437,2
DA:438,2
DA:439,2
DA:440,2
DA:441,2
DA:443,2
DA:445,3
DA:446,3
DA:447,3
DA:448,3
DA:451,2
DA:452,2
DA:455,5
DA:456,5
DA:457,5
DA:458,5
DA:459,5
DA:460,5
DA:462,5
DA:464,8
DA:465,8
DA:466,8
DA:467,8
DA:470,5
DA:471,5
DA:482,4
DA:484,4
DA:485,4
DA:486,4
DA:487,4
DA:489,4
DA:490,0
DA:491,4
DA:492,4
DA:495,4
DA:496,4
DA:497,4
DA:498,4
DA:499,4
DA:500,0
DA:501,0
DA:502,0
DA:505,4
DA:506,1
DA:507,1
DA:508,3
DA:511,3
DA:512,3
DA:513,1
DA:514,1
DA:515,2
DA:519,2
DA:520,2
DA:523,2
DA:526,2
DA:527,2
DA:528,2
DA:531,2
DA:532,4
DA:535,4
DA:536,4
DA:537,4
DA:538,4
DA:539,4
DA:540,4
DA:542,3
DA:543,3
DA:544,4
DA:547,3
DA:548,3
DA:549,3
BRF:0
BRH:0
LF:274
LH:235
end_of_record
SF:/Users/mac/Documents/DripsOS/Commitlabs-Contracts/contracts/shared_utils/src/access_control.rs
FN:131,_RNCNvNtNtCs4VDJufQJznm_12shared_utils14access_control5testss_13test_is_admin0B7_
FN:150,_RNCNvNtNtCs4VDJufQJznm_12shared_utils14access_control5testss_18test_require_owner0B7_
FN:77,_RNvMNtCs4VDJufQJznm_12shared_utils14access_controlNtB2_13AccessControl13require_owner
FN:63,_RNvMNtCs4VDJufQJznm_12shared_utils14access_controlNtB2_13AccessControl8is_admin
FN:18,_RNvMNtCs4VDJufQJznm_12shared_utils14access_controlNtB2_13AccessControl13require_admin
FN:93,_RNvMNtCs4VDJufQJznm_12shared_utils14access_controlNtB2_13AccessControl22require_owner_or_admin
FN:35,_RNvMNtCs4VDJufQJznm_12shared_utils14access_controlNtB2_13AccessControl27require_admin_or_authorized
FN:121,_RNvMs2_NtNtCs4VDJufQJznm_12shared_utils14access_control5testsNtB5_12TestContract4stub
FN:125,_RNvNtNtCs4VDJufQJznm_12shared_utils14access_control5testss_13test_is_admin
FN:144,_RNvNtNtCs4VDJufQJznm_12shared_utils14access_control5testss_18test_require_owner
FNDA:1,_RNCNvNtNtCs4VDJufQJznm_12shared_utils14access_control5testss_13test_is_admin0B7_
FNDA:1,_RNCNvNtNtCs4VDJufQJznm_12shared_utils14access_control5testss_18test_require_owner0B7_
FNDA:1,_RNvMNtCs4VDJufQJznm_12shared_utils14access_controlNtB2_13AccessControl13require_owner
FNDA:3,_RNvMNtCs4VDJufQJznm_12shared_utils14access_controlNtB2_13AccessControl8is_admin
FNDA:0,_RNvMNtCs4VDJufQJznm_12shared_utils14access_controlNtB2_13AccessControl13require_admin
FNDA:0,_RNvMNtCs4VDJufQJznm_12shared_utils14access_controlNtB2_13AccessControl22require_owner_or_admin
FNDA:0,_RNvMNtCs4VDJufQJznm_12shared_utils14access_controlNtB2_13AccessControl27require_admin_or_authorized
FNDA:0,_RNvMs2_NtNtCs4VDJufQJznm_12shared_utils14access_control5testsNtB5_12TestContract4stub
FNDA:1,_RNvNtNtCs4VDJufQJznm_12shared_utils14access_control5testss_13test_is_admin
FNDA:1,_RNvNtNtCs4VDJufQJznm_12shared_utils14access_control5testss_18test_require_owner
FNF:10
FNH:6
DA:18,0
DA:19,0
DA:20,0
DA:21,0
DA:22,0
DA:23,0
DA:24,0
DA:35,0
DA:36,0
DA:39,0
DA:40,0
DA:41,0
DA:42,0
DA:45,0
DA:46,0
DA:47,0
DA:48,0
DA:49,0
DA:50,0
DA:51,0
DA:52,0
DA:53,0
DA:63,3
DA:64,3
DA:65,3
DA:66,3
DA:77,1
DA:78,1
DA:79,1
DA:80,0
DA:81,1
DA:82,1
DA:93,0
DA:94,0
DA:96,0
DA:97,0
DA:98,0
DA:100,0
DA:101,0
DA:102,0
DA:104,0
DA:105,0
DA:121,0
DA:125,1
DA:126,1
DA:127,1
DA:129,1
DA:131,1
DA:132,1
DA:133,1
DA:135,1
DA:137,1
DA:138,1
DA:139,1
DA:140,1
DA:144,1
DA:145,1
DA:146,1
DA:148,1
DA:150,1
DA:155,1
DA:156,1
DA:157,1
BRF:0
BRH:0
LF:65
LH:31
end_of_record
SF:/Users/mac/Documents/DripsOS/Commitlabs-Contracts/contracts/shared_utils/src/errors.rs
FN:36,_RNvMNtCs4VDJufQJznm_12shared_utils6errorsNtB2_11ErrorHelper14panic_with_log
FN:64,_RNvMNtCs4VDJufQJznm_12shared_utils6errorsNtB2_11ErrorHelper7require
FN:14,_RNvMNtCs4VDJufQJznm_12shared_utils6errorsNtB2_11ErrorHelper9log_error
FN:50,_RNvMNtCs4VDJufQJznm_12shared_utils6errorsNtB2_11ErrorHelper18panic_with_context
FN:80,_RNvMNtCs4VDJufQJznm_12shared_utils6errorsNtB2_11ErrorHelper20require_with_context
FN:24,_RNvMNtCs4VDJufQJznm_12shared_utils6errorsNtB2_11ErrorHelper22log_error_with_context
FN:92,_RNvNtNtCs4VDJufQJznm_12shared_utils6errors5testss_12test_require
FN:99,_RNvNtNtCs4VDJufQJznm_12shared_utils6errors5testss_18test_require_fails
FNDA:1,_RNvMNtCs4VDJufQJznm_12shared_utils6errorsNtB2_11ErrorHelper14panic_with_log
FNDA:2,_RNvMNtCs4VDJufQJznm_12shared_utils6errorsNtB2_11ErrorHelper7require
FNDA:1,_RNvMNtCs4VDJufQJznm_12shared_utils6errorsNtB2_11ErrorHelper9log_error
FNDA:0,_RNvMNtCs4VDJufQJznm_12shared_utils6errorsNtB2_11ErrorHelper18panic_with_context
FNDA:0,_RNvMNtCs4VDJufQJznm_12shared_utils6errorsNtB2_11ErrorHelper20require_with_context
FNDA:0,_RNvMNtCs4VDJufQJznm_12shared_utils6errorsNtB2_11ErrorHelper22log_error_with_context
FNDA:1,_RNvNtNtCs4VDJufQJznm_12shared_utils6errors5testss_12test_require
FNDA:1,_RNvNtNtCs4VDJufQJznm_12shared_utils6errors5testss_18test_require_fails
FNF:8
FNH:5
DA:14,1
DA:15,1
DA:16,1
DA:24,0
DA:25,0
DA:26,0
DA:36,1
DA:37,1
DA:38,1
DA:50,0
DA:51,0
DA:52,0
DA:64,2
DA:65,2
DA:66,1
DA:67,1
DA:68,1
DA:80,0
DA:81,0
DA:82,0
DA:83,0
DA:84,0
DA:92,1
DA:93,1
DA:94,1
DA:95,1
DA:99,1
DA:100,1
DA:101,1
DA:102,1
BRF:0
BRH:0
LF:30
LH:19
end_of_record
SF:/Users/mac/Documents/DripsOS/Commitlabs-Contracts/contracts/shared_utils/src/events.rs
FN:122,_RNvNtNtCs4VDJufQJznm_12shared_utils6events5testss_17test_emit_created
FN:131,_RNvNtNtCs4VDJufQJznm_12shared_utils6events5testss_18test_emit_transfer
FN:116,_RNvNtNtCs4VDJufQJznm_12shared_utils6events5testss_9test_emit
FN:60,_RINvMNtCs4VDJufQJznm_12shared_utils6eventsNtB3_6Events12emit_updatedpEB5_
FN:72,_RNvMNtCs4VDJufQJznm_12shared_utils6eventsNtB2_6Events12emit_deleted
FN:101,_RNvMNtCs4VDJufQJznm_12shared_utils6eventsNtB2_6Events14emit_violation
FN:43,_RINvMNtCs4VDJufQJznm_12shared_utils6eventsNtB3_6Events12emit_createdTnEEB5_
FN:28,_RINvMNtCs4VDJufQJznm_12shared_utils6eventsNtB3_6Events16emit_with_topicsTNtNtCseMrVtW2kDNn_11soroban_sdk6symbol6SymbolNtNtB1d_6string6StringNtNtB1d_7address7AddressETnEEB5_
FN:28,_RINvMNtCs4VDJufQJznm_12shared_utils6eventsNtB3_6Events16emit_with_topicsTNtNtCseMrVtW2kDNn_11soroban_sdk6symbol6SymbolNtNtB1d_7address7AddressB1S_ETnyEEB5_
FN:15,_RINvMNtCs4VDJufQJznm_12shared_utils6eventsNtB3_6Events4emitTnEEB5_
FN:87,_RNvMNtCs4VDJufQJznm_12shared_utils6eventsNtB2_6Events13emit_transfer
FNDA:1,_RNvNtNtCs4VDJufQJznm_12shared_utils6events5testss_17test_emit_created
FNDA:1,_RNvNtNtCs4VDJufQJznm_12shared_utils6events5testss_18test_emit_transfer
FNDA:1,_RNvNtNtCs4VDJufQJznm_12shared_utils6events5testss_9test_emit
FNDA:0,_RINvMNtCs4VDJufQJznm_12shared_utils6eventsNtB3_6Events12emit_updatedpEB5_
FNDA:0,_RNvMNtCs4VDJufQJznm_12shared_utils6eventsNtB2_6Events12emit_deleted
FNDA:0,_RNvMNtCs4VDJufQJznm_12shared_utils6eventsNtB2_6Events14emit_violation
FNDA:2,_RINvMNtCs4VDJufQJznm_12shared_utils6eventsNtB3_6Events12emit_createdTnEEB5_
FNDA:2,_RINvMNtCs4VDJufQJznm_12shared_utils6eventsNtB3_6Events16emit_with_topicsTNtNtCseMrVtW2kDNn_11soroban_sdk6symbol6SymbolNtNtB1d_6string6StringNtNtB1d_7address7AddressETnEEB5_
FNDA:1,_RINvMNtCs4VDJufQJznm_12shared_utils6eventsNtB3_6Events16emit_with_topicsTNtNtCseMrVtW2kDNn_11soroban_sdk6symbol6SymbolNtNtB1d_7address7AddressB1S_ETnyEEB5_
FNDA:1,_RINvMNtCs4VDJufQJznm_12shared_utils6eventsNtB3_6Events4emitTnEEB5_
FNDA:1,_RNvMNtCs4VDJufQJznm_12shared_utils6eventsNtB2_6Events13emit_transfer
FNF:10
FNH:7
DA:15,1
DA:16,1
DA:17,1
DA:19,1
DA:20,1
DA:28,3
DA:29,3
DA:30,3
DA:31,3
DA:33,3
DA:34,3
DA:43,2
DA:44,2
DA:45,2
DA:47,2
DA:48,2
DA:49,2
DA:50,2
DA:52,2
DA:60,0
DA:61,0
DA:62,0
DA:64,0
DA:65,0
DA:72,0
DA:73,0
DA:74,0
DA:75,0
DA:76,0
DA:78,0
DA:87,1
DA:88,1
DA:89,1
DA:90,1
DA:91,1
DA:93,1
DA:101,0
DA:102,0
DA:103,0
DA:104,0
DA:105,0
DA:107,0
DA:116,1
DA:117,1
DA:118,1
DA:119,1
DA:122,1
DA:123,1
DA:124,1
DA:125,1
DA:127,1
DA:128,1
DA:131,1
DA:132,1
DA:133,1
DA:134,1
DA:136,1
DA:137,1
BRF:0
BRH:0
LF:58
LH:41
end_of_record
SF:/Users/mac/Documents/DripsOS/Commitlabs-Contracts/contracts/shared_utils/src/math.rs
FN:49,_RNvMNtCsZvh3qlyGoj_12shared_utils4mathNtB2_8SafeMath10percent_of
FN:92,_RNvMNtCsZvh3qlyGoj_12shared_utils4mathNtB2_8SafeMath12gain_percent
FN:76,_RNvMNtCsZvh3qlyGoj_12shared_utils4mathNtB2_8SafeMath12loss_percent
FN:61,_RNvMNtCsZvh3qlyGoj_12shared_utils4mathNtB2_8SafeMath12percent_from
FN:108,_RNvMNtCsZvh3qlyGoj_12shared_utils4mathNtB2_8SafeMath13apply_penalty
FN:121,_RNvMNtCsZvh3qlyGoj_12shared_utils4mathNtB2_8SafeMath14penalty_amount
FN:10,_RNvMNtCsZvh3qlyGoj_12shared_utils4mathNtB2_8SafeMath3add
FN:25,_RNvMNtCsZvh3qlyGoj_12shared_utils4mathNtB2_8SafeMath3div
FN:20,_RNvMNtCsZvh3qlyGoj_12shared_utils4mathNtB2_8SafeMath3mul
FN:15,_RNvMNtCsZvh3qlyGoj_12shared_utils4mathNtB2_8SafeMath3sub
FN:40,_RNvMNtCsZvh3qlyGoj_12shared_utils4mathNtB2_8SafeMath7percent
FN:49,_RNvMNtCs4VDJufQJznm_12shared_utils4mathNtB2_8SafeMath10percent_of
FN:92,_RNvMNtCs4VDJufQJznm_12shared_utils4mathNtB2_8SafeMath12gain_percent
FN:76,_RNvMNtCs4VDJufQJznm_12shared_utils4mathNtB2_8SafeMath12loss_percent
FN:61,_RNvMNtCs4VDJufQJznm_12shared_utils4mathNtB2_8SafeMath12percent_from
FN:108,_RNvMNtCs4VDJufQJznm_12shared_utils4mathNtB2_8SafeMath13apply_penalty
FN:121,_RNvMNtCs4VDJufQJznm_12shared_utils4mathNtB2_8SafeMath14penalty_amount
FN:10,_RNvMNtCs4VDJufQJznm_12shared_utils4mathNtB2_8SafeMath3add
FN:25,_RNvMNtCs4VDJufQJznm_12shared_utils4mathNtB2_8SafeMath3div
FN:20,_RNvMNtCs4VDJufQJznm_12shared_utils4mathNtB2_8SafeMath3mul
FN:15,_RNvMNtCs4VDJufQJznm_12shared_utils4mathNtB2_8SafeMath3sub
FN:40,_RNvMNtCs4VDJufQJznm_12shared_utils4mathNtB2_8SafeMath7percent
FN:161,_RNvNtNtCs4VDJufQJznm_12shared_utils4math5testss_12test_percent
FN:131,_RNvNtNtCs4VDJufQJznm_12shared_utils4math5testss_13test_safe_add
FN:149,_RNvNtNtCs4VDJufQJznm_12shared_utils4math5testss_13test_safe_div
FN:143,_RNvNtNtCs4VDJufQJznm_12shared_utils4math5testss_13test_safe_mul
FN:137,_RNvNtNtCs4VDJufQJznm_12shared_utils4math5testss_13test_safe_sub
FN:182,_RNvNtNtCs4VDJufQJznm_12shared_utils4math5testss_17test_gain_percent
FN:175,_RNvNtNtCs4VDJufQJznm_12shared_utils4math5testss_17test_loss_percent
FN:168,_RNvNtNtCs4VDJufQJznm_12shared_utils4math5testss_17test_percent_from
FN:189,_RNvNtNtCs4VDJufQJznm_12shared_utils4math5testss_18test_apply_penalty
FN:196,_RNvNtNtCs4VDJufQJznm_12shared_utils4math5testss_19test_penalty_amount
FN:156,_RNvNtNtCs4VDJufQJznm_12shared_utils4math5testss_21test_safe_div_by_zero
FNDA:0,_RNvMNtCsZvh3qlyGoj_12shared_utils4mathNtB2_8SafeMath10percent_of
FNDA:0,_RNvMNtCsZvh3qlyGoj_12shared_utils4mathNtB2_8SafeMath12gain_percent
FNDA:6,_RNvMNtCsZvh3qlyGoj_12shared_utils4mathNtB2_8SafeMath12loss_percent
FNDA:6,_RNvMNtCsZvh3qlyGoj_12shared_utils4mathNtB2_8SafeMath12percent_from
FNDA:0,_RNvMNtCsZvh3qlyGoj_12shared_utils4mathNtB2_8SafeMath13apply_penalty
FNDA:0,_RNvMNtCsZvh3qlyGoj_12shared_utils4mathNtB2_8SafeMath14penalty_amount
FNDA:0,_RNvMNtCsZvh3qlyGoj_12shared_utils4mathNtB2_8SafeMath3add
FNDA:6,_RNvMNtCsZvh3qlyGoj_12shared_utils4mathNtB2_8SafeMath3div
FNDA:6,_RNvMNtCsZvh3qlyGoj_12shared_utils4mathNtB2_8SafeMath3mul
FNDA:6,_RNvMNtCsZvh3qlyGoj_12shared_utils4mathNtB2_8SafeMath3sub
FNDA:0,_RNvMNtCsZvh3qlyGoj_12shared_utils4mathNtB2_8SafeMath7percent
FNDA:0,_RNvMNtCs4VDJufQJznm_12shared_utils4mathNtB2_8SafeMath10percent_of
FNDA:3,_RNvMNtCs4VDJufQJznm_12shared_utils4mathNtB2_8SafeMath12gain_percent
FNDA:3,_RNvMNtCs4VDJufQJznm_12shared_utils4mathNtB2_8SafeMath12loss_percent
FNDA:9,_RNvMNtCs4VDJufQJznm_12shared_utils4mathNtB2_8SafeMath12percent_from
FNDA:3,_RNvMNtCs4VDJufQJznm_12shared_utils4mathNtB2_8SafeMath13apply_penalty
FNDA:3,_RNvMNtCs4VDJufQJznm_12shared_utils4mathNtB2_8SafeMath14penalty_amount
FNDA:2,_RNvMNtCs4VDJufQJznm_12shared_utils4mathNtB2_8SafeMath3add
FNDA:22,_RNvMNtCs4VDJufQJznm_12shared_utils4mathNtB2_8SafeMath3div
FNDA:21,_RNvMNtCs4VDJufQJznm_12shared_utils4mathNtB2_8SafeMath3mul
FNDA:11,_RNvMNtCs4VDJufQJznm_12shared_utils4mathNtB2_8SafeMath3sub
FNDA:10,_RNvMNtCs4VDJufQJznm_12shared_utils4mathNtB2_8SafeMath7percent
FNDA:1,_RNvNtNtCs4VDJufQJznm_12shared_utils4math5testss_12test_percent
FNDA:1,_RNvNtNtCs4VDJufQJznm_12shared_utils4math5testss_13test_safe_add
FNDA:1,_RNvNtNtCs4VDJufQJznm_12shared_utils4math5testss_13test_safe_div
FNDA:1,_RNvNtNtCs4VDJufQJznm_12shared_utils4math5testss_13test_safe_mul
FNDA:1,_RNvNtNtCs4VDJufQJznm_12shared_utils4math5testss_13test_safe_sub
FNDA:1,_RNvNtNtCs4VDJufQJznm_12shared_utils4math5testss_17test_gain_percent
FNDA:1,_RNvNtNtCs4VDJufQJznm_12shared_utils4math5testss_17test_loss_percent
FNDA:1,_RNvNtNtCs4VDJufQJznm_12shared_utils4math5testss_17test_percent_from
FNDA:1,_RNvNtNtCs4VDJufQJznm_12shared_utils4math5testss_18test_apply_penalty
FNDA:1,_RNvNtNtCs4VDJufQJznm_12shared_utils4math5testss_19test_penalty_amount
FNDA:1,_RNvNtNtCs4VDJufQJznm_12shared_utils4math5testss_21test_safe_div_by_zero
FNF:22
FNH:21
DA:10,2
DA:11,2
DA:12,2
DA:15,17
DA:16,17
DA:17,17
DA:20,27
DA:21,27
DA:22,27
DA:25,28
DA:26,28
DA:27,1
DA:28,27
DA:29,27
DA:30,27
DA:40,10
DA:41,10
DA:42,0
DA:43,10
DA:44,10
DA:45,10
DA:49,0
DA:50,0
DA:51,0
DA:61,15
DA:62,15
DA:63,0
DA:64,15
DA:65,15
DA:66,15
DA:76,9
DA:77,9
DA:78,0
DA:79,9
DA:80,9
DA:81,9
DA:82,9
DA:92,3
DA:93,3
DA:94,0
DA:95,3
DA:96,3
DA:97,3
DA:98,3
DA:108,3
DA:109,3
DA:110,3
DA:111,3
DA:121,3
DA:122,3
DA:123,3
DA:131,1
DA:132,1
DA:133,1
DA:134,1
DA:137,1
DA:138,1
DA:139,1
DA:140,1
DA:143,1
DA:144,1
DA:145,1
DA:146,1
DA:149,1
DA:150,1
DA:151,1
DA:152,1
DA:156,1
DA:157,1
DA:158,1
DA:161,1
DA:162,1
DA:163,1
DA:164,1
DA:165,1
DA:168,1
DA:169,1
DA:170,1
DA:171,1
DA:172,1
DA:175,1
DA:176,1
DA:177,1
DA:178,1
DA:179,1
DA:182,1
DA:183,1
DA:184,1
DA:185,1
DA:186,1
DA:189,1
DA:190,1
DA:191,1
DA:192,1
DA:193,1
DA:196,1
DA:197,1
DA:198,1
DA:199,1
DA:200,1
BRF:0
BRH:0
LF:100
LH:93
end_of_record
SF:/Users/mac/Documents/DripsOS/Commitlabs-Contracts/contracts/shared_utils/src/rate_limiting.rs
FN:62,_RNvMNtCsZvh3qlyGoj_12shared_utils13rate_limitingNtB2_11RateLimiter10set_exempt
FN:54,_RNvMNtCsZvh3qlyGoj_12shared_utils13rate_limitingNtB2_11RateLimiter11clear_limit
FN:87,_RNvMNtCsZvh3qlyGoj_12shared_utils13rate_limitingNtB2_11RateLimiter5check
FN:72,_RNvMNtCsZvh3qlyGoj_12shared_utils13rate_limitingNtB2_11RateLimiter9is_exempt
FN:42,_RNvMNtCsZvh3qlyGoj_12shared_utils13rate_limitingNtB2_11RateLimiter9set_limit
FN:207,_RNCNvNtNtCs4VDJufQJznm_12shared_utils13rate_limiting5testss_35test_rate_limit_resets_after_window0B7_
FN:213,_RNCNvNtNtCs4VDJufQJznm_12shared_utils13rate_limiting5testss_35test_rate_limit_resets_after_windows_0B7_
FN:157,_RNvMs2_NtNtCs4VDJufQJznm_12shared_utils13rate_limiting5testsNtB5_21TestRateLimitContract10set_exempt
FN:148,_RNvMs2_NtNtCs4VDJufQJznm_12shared_utils13rate_limiting5testsNtB5_21TestRateLimitContract12limited_call
FN:153,_RNvMs2_NtNtCs4VDJufQJznm_12shared_utils13rate_limiting5testsNtB5_21TestRateLimitContract15configure_limit
FN:180,_RNvNtNtCs4VDJufQJznm_12shared_utils13rate_limiting5testss_32test_rate_limit_blocks_on_exceed
FN:220,_RNvNtNtCs4VDJufQJznm_12shared_utils13rate_limiting5testss_35test_exempt_address_bypasses_limits
FN:163,_RNvNtNtCs4VDJufQJznm_12shared_utils13rate_limiting5testss_35test_rate_limit_allows_within_limit
FN:196,_RNvNtNtCs4VDJufQJznm_12shared_utils13rate_limiting5testss_35test_rate_limit_resets_after_window
FN:62,_RNvMNtCs4VDJufQJznm_12shared_utils13rate_limitingNtB2_11RateLimiter10set_exempt
FN:87,_RNvMNtCs4VDJufQJznm_12shared_utils13rate_limitingNtB2_11RateLimiter5check
FN:72,_RNvMNtCs4VDJufQJznm_12shared_utils13rate_limitingNtB2_11RateLimiter9is_exempt
FN:42,_RNvMNtCs4VDJufQJznm_12shared_utils13rate_limitingNtB2_11RateLimiter9set_limit
FN:54,_RNvMNtCs4VDJufQJznm_12shared_utils13rate_limitingNtB2_11RateLimiter11clear_limit
FNDA:0,_RNvMNtCsZvh3qlyGoj_12shared_utils13rate_limitingNtB2_11RateLimiter10set_exempt
FNDA:0,_RNvMNtCsZvh3qlyGoj_12shared_utils13rate_limitingNtB2_11RateLimiter11clear_limit
FNDA:53,_RNvMNtCsZvh3qlyGoj_12shared_utils13rate_limitingNtB2_11RateLimiter5check
FNDA:53,_RNvMNtCsZvh3qlyGoj_12shared_utils13rate_limitingNtB2_11RateLimiter9is_exempt
FNDA:3,_RNvMNtCsZvh3qlyGoj_12shared_utils13rate_limitingNtB2_11RateLimiter9set_limit
FNDA:1,_RNCNvNtNtCs4VDJufQJznm_12shared_utils13rate_limiting5testss_35test_rate_limit_resets_after_window0B7_
FNDA:1,_RNCNvNtNtCs4VDJufQJznm_12shared_utils13rate_limiting5testss_35test_rate_limit_resets_after_windows_0B7_
FNDA:1,_RNvMs2_NtNtCs4VDJufQJznm_12shared_utils13rate_limiting5testsNtB5_21TestRateLimitContract10set_exempt
FNDA:9,_RNvMs2_NtNtCs4VDJufQJznm_12shared_utils13rate_limiting5testsNtB5_21TestRateLimitContract12limited_call
FNDA:4,_RNvMs2_NtNtCs4VDJufQJznm_12shared_utils13rate_limiting5testsNtB5_21TestRateLimitContract15configure_limit
FNDA:1,_RNvNtNtCs4VDJufQJznm_12shared_utils13rate_limiting5testss_32test_rate_limit_blocks_on_exceed
FNDA:1,_RNvNtNtCs4VDJufQJznm_12shared_utils13rate_limiting5testss_35test_exempt_address_bypasses_limits
FNDA:1,_RNvNtNtCs4VDJufQJznm_12shared_utils13rate_limiting5testss_35test_rate_limit_allows_within_limit
FNDA:1,_RNvNtNtCs4VDJufQJznm_12shared_utils13rate_limiting5testss_35test_rate_limit_resets_after_window
FNDA:1,_RNvMNtCs4VDJufQJznm_12shared_utils13rate_limitingNtB2_11RateLimiter10set_exempt
FNDA:9,_RNvMNtCs4VDJufQJznm_12shared_utils13rate_limitingNtB2_11RateLimiter5check
FNDA:9,_RNvMNtCs4VDJufQJznm_12shared_utils13rate_limitingNtB2_11RateLimiter9is_exempt
FNDA:4,_RNvMNtCs4VDJufQJznm_12shared_utils13rate_limitingNtB2_11RateLimiter9set_limit
FNDA:0,_RNvMNtCs4VDJufQJznm_12shared_utils13rate_limitingNtB2_11RateLimiter11clear_limit
FNF:14
FNH:13
DA:42,7
DA:43,7
DA:44,0
DA:45,7
DA:47,7
DA:48,7
DA:49,7
DA:50,7
DA:51,7
DA:54,0
DA:55,0
DA:56,0
DA:57,0
DA:62,1
DA:63,1
DA:64,1
DA:65,1
DA:66,1
DA:67,0
DA:68,0
DA:69,1
DA:72,62
DA:73,62
DA:74,62
DA:75,62
DA:76,62
DA:77,62
DA:78,62
DA:87,62
DA:89,62
DA:90,3
DA:91,59
DA:94,59
DA:95,59
DA:96,59
DA:97,59
DA:98,59
DA:100,59
DA:101,12
DA:102,47
DA:105,12
DA:108,12
DA:109,12
DA:110,12
DA:111,12
DA:112,12
DA:113,12
DA:116,12
DA:117,1
DA:118,1
DA:119,11
DA:122,12
DA:123,12
DA:124,4
DA:125,8
DA:128,8
DA:129,8
DA:130,8
DA:131,58
DA:148,9
DA:149,9
DA:150,9
DA:151,9
DA:153,4
DA:154,4
DA:155,4
DA:157,1
DA:158,1
DA:159,1
DA:163,1
DA:164,1
DA:165,1
DA:166,1
DA:168,1
DA:171,1
DA:174,1
DA:175,1
DA:176,1
DA:180,1
DA:181,1
DA:182,1
DA:183,1
DA:185,1
DA:188,1
DA:190,1
DA:192,1
DA:193,1
DA:196,1
DA:197,1
DA:198,1
DA:199,1
DA:201,1
DA:204,1
DA:207,1
DA:208,1
DA:209,1
DA:210,1
DA:213,1
DA:214,1
DA:215,1
DA:216,1
DA:217,1
DA:220,1
DA:221,1
DA:222,1
DA:223,1
DA:225,1
DA:228,1
DA:231,1
DA:234,1
DA:235,1
DA:236,1
DA:237,1
BRF:0
BRH:0
LF:115
LH:107
end_of_record
SF:/Users/mac/Documents/DripsOS/Commitlabs-Contracts/contracts/shared_utils/src/storage.rs
FN:64,_RNCNvMNtCsZvh3qlyGoj_12shared_utils7storageNtB4_7Storage9get_admin0B6_
FN:64,_RNCNvMNtCs4VDJufQJznm_12shared_utils7storageNtB4_7Storage9get_admin0B6_
FN:98,_RINvMNtCs4VDJufQJznm_12shared_utils7storageNtB3_7Storage14get_or_defaultpEB5_
FN:129,_RINvMNtCs4VDJufQJznm_12shared_utils7storageNtB3_7Storage3getpEB5_
FN:114,_RINvMNtCs4VDJufQJznm_12shared_utils7storageNtB3_7Storage3setpEB5_
FN:144,_RNvMNtCs4VDJufQJznm_12shared_utils7storageNtB2_7Storage3has
FN:184,_RNCNvNtNtCs4VDJufQJznm_12shared_utils7storage5testss_18test_admin_storage0B7_
FN:169,_RNCNvNtNtCs4VDJufQJznm_12shared_utils7storage5testss_19test_initialization0B7_
FN:199,_RNCNvNtNtCs4VDJufQJznm_12shared_utils7storage5testss_30test_require_initialized_fails0B7_
FN:210,_RNCNvNtNtCs4VDJufQJznm_12shared_utils7storage5testss_34test_require_not_initialized_fails0B7_
FN:24,_RNvMNtCs4VDJufQJznm_12shared_utils7storageNtB2_7Storage14is_initialized
FN:45,_RNvMNtCs4VDJufQJznm_12shared_utils7storageNtB2_7Storage15set_initialized
FN:35,_RNvMNtCs4VDJufQJznm_12shared_utils7storageNtB2_7Storage19require_initialized
FN:83,_RNvMNtCs4VDJufQJznm_12shared_utils7storageNtB2_7Storage23require_not_initialized
FN:59,_RNvMNtCs4VDJufQJznm_12shared_utils7storageNtB2_7Storage9get_admin
FN:72,_RNvMNtCs4VDJufQJznm_12shared_utils7storageNtB2_7Storage9set_admin
FN:161,_RNvMs2_NtNtCs4VDJufQJznm_12shared_utils7storage5testsNtB5_12TestContract4stub
FN:178,_RNvNtNtCs4VDJufQJznm_12shared_utils7storage5testss_18test_admin_storage
FN:165,_RNvNtNtCs4VDJufQJznm_12shared_utils7storage5testss_19test_initialization
FN:195,_RNvNtNtCs4VDJufQJznm_12shared_utils7storage5testss_30test_require_initialized_fails
FN:206,_RNvNtNtCs4VDJufQJznm_12shared_utils7storage5testss_34test_require_not_initialized_fails
FNDA:0,_RNCNvMNtCsZvh3qlyGoj_12shared_utils7storageNtB4_7Storage9get_admin0B6_
FNDA:0,_RNCNvMNtCs4VDJufQJznm_12shared_utils7storageNtB4_7Storage9get_admin0B6_
FNDA:0,_RINvMNtCs4VDJufQJznm_12shared_utils7storageNtB3_7Storage14get_or_defaultpEB5_
FNDA:0,_RINvMNtCs4VDJufQJznm_12shared_utils7storageNtB3_7Storage3getpEB5_
FNDA:0,_RINvMNtCs4VDJufQJznm_12shared_utils7storageNtB3_7Storage3setpEB5_
FNDA:0,_RNvMNtCs4VDJufQJznm_12shared_utils7storageNtB2_7Storage3has
FNDA:1,_RNCNvNtNtCs4VDJufQJznm_12shared_utils7storage5testss_18test_admin_storage0B7_
FNDA:1,_RNCNvNtNtCs4VDJufQJznm_12shared_utils7storage5testss_19test_initialization0B7_
FNDA:1,_RNCNvNtNtCs4VDJufQJznm_12shared_utils7storage5testss_30test_require_initialized_fails0B7_
FNDA:1,_RNCNvNtNtCs4VDJufQJznm_12shared_utils7storage5testss_34test_require_not_initialized_fails0B7_
FNDA:8,_RNvMNtCs4VDJufQJznm_12shared_utils7storageNtB2_7Storage14is_initialized
FNDA:6,_RNvMNtCs4VDJufQJznm_12shared_utils7storageNtB2_7Storage15set_initialized
FNDA:5,_RNvMNtCs4VDJufQJznm_12shared_utils7storageNtB2_7Storage19require_initialized
FNDA:1,_RNvMNtCs4VDJufQJznm_12shared_utils7storageNtB2_7Storage23require_not_initialized
FNDA:4,_RNvMNtCs4VDJufQJznm_12shared_utils7storageNtB2_7Storage9get_admin
FNDA:4,_RNvMNtCs4VDJufQJznm_12shared_utils7storageNtB2_7Storage9set_admin
FNDA:0,_RNvMs2_NtNtCs4VDJufQJznm_12shared_utils7storage5testsNtB5_12TestContract4stub
FNDA:1,_RNvNtNtCs4VDJufQJznm_12shared_utils7storage5testss_18test_admin_storage
FNDA:1,_RNvNtNtCs4VDJufQJznm_12shared_utils7storage5testss_19test_initialization
FNDA:1,_RNvNtNtCs4VDJufQJznm_12shared_utils7storage5testss_30test_require_initialized_fails
FNDA:1,_RNvNtNtCs4VDJufQJznm_12shared_utils7storage5testss_34test_require_not_initialized_fails
FNF:20
FNH:14
DA:24,8
DA:25,8
DA:26,8
DA:35,5
DA:36,5
DA:37,1
DA:38,4
DA:39,4
DA:45,6
DA:46,6
DA:47,6
DA:59,4
DA:60,4
DA:61,4
DA:62,4
DA:63,4
DA:64,4
DA:65,4
DA:72,4
DA:73,4
DA:74,4
DA:83,1
DA:84,1
DA:85,1
DA:86,0
DA:87,0
DA:98,0
DA:99,0
DA:100,0
DA:102,0
DA:103,0
DA:104,0
DA:105,0
DA:106,0
DA:114,0
DA:115,0
DA:116,0
DA:118,0
DA:119,0
DA:129,0
DA:130,0
DA:131,0
DA:133,0
DA:134,0
DA:144,0
DA:145,0
DA:146,0
DA:161,0
DA:165,1
DA:166,1
DA:167,1
DA:169,1
DA:170,1
DA:172,1
DA:173,1
DA:174,1
DA:175,1
DA:178,1
DA:179,1
DA:180,1
DA:182,1
DA:184,1
DA:185,1
DA:186,1
DA:188,1
DA:189,1
DA:190,1
DA:191,1
DA:195,1
DA:196,1
DA:197,1
DA:199,1
DA:200,1
DA:201,1
DA:202,1
DA:206,1
DA:207,1
DA:208,1
DA:210,1
DA:211,1
DA:212,1
DA:213,1
DA:214,1
BRF:0
BRH:0
LF:88
LH:63
end_of_record
SF:/Users/mac/Documents/DripsOS/Commitlabs-Contracts/contracts/shared_utils/src/time.rs
FN:69,_RNvMNtCsZvh3qlyGoj_12shared_utils4timeNtB2_9TimeUtils10is_expired
FN:93,_RNvMNtCsZvh3qlyGoj_12shared_utils4timeNtB2_9TimeUtils14time_remaining
FN:21,_RNvMNtCsZvh3qlyGoj_12shared_utils4timeNtB2_9TimeUtils15days_to_seconds
FN:126,_RNvMNtCsZvh3qlyGoj_12shared_utils4timeNtB2_9TimeUtils15seconds_to_days
FN:32,_RNvMNtCsZvh3qlyGoj_12shared_utils4timeNtB2_9TimeUtils16hours_to_seconds
FN:43,_RNvMNtCsZvh3qlyGoj_12shared_utils4timeNtB2_9TimeUtils18minutes_to_seconds
FN:55,_RNvMNtCsZvh3qlyGoj_12shared_utils4timeNtB2_9TimeUtils20calculate_expiration
FN:10,_RNvMNtCsZvh3qlyGoj_12shared_utils4timeNtB2_9TimeUtils3now
FN:110,_RNvMNtCsZvh3qlyGoj_12shared_utils4timeNtB2_9TimeUtils7elapsed
FN:81,_RNvMNtCsZvh3qlyGoj_12shared_utils4timeNtB2_9TimeUtils8is_valid
FN:69,_RNvMNtCs4VDJufQJznm_12shared_utils4timeNtB2_9TimeUtils10is_expired
FN:93,_RNvMNtCs4VDJufQJznm_12shared_utils4timeNtB2_9TimeUtils14time_remaining
FN:21,_RNvMNtCs4VDJufQJznm_12shared_utils4timeNtB2_9TimeUtils15days_to_seconds
FN:126,_RNvMNtCs4VDJufQJznm_12shared_utils4timeNtB2_9TimeUtils15seconds_to_days
FN:32,_RNvMNtCs4VDJufQJznm_12shared_utils4timeNtB2_9TimeUtils16hours_to_seconds
FN:43,_RNvMNtCs4VDJufQJznm_12shared_utils4timeNtB2_9TimeUtils18minutes_to_seconds
FN:55,_RNvMNtCs4VDJufQJznm_12shared_utils4timeNtB2_9TimeUtils20calculate_expiration
FN:10,_RNvMNtCs4VDJufQJznm_12shared_utils4timeNtB2_9TimeUtils3now
FN:110,_RNvMNtCs4VDJufQJznm_12shared_utils4timeNtB2_9TimeUtils7elapsed
FN:191,_RNCNvNtNtCs4VDJufQJznm_12shared_utils4time5testss_12test_elapsed0B7_
FN:169,_RNCNvNtNtCs4VDJufQJznm_12shared_utils4time5testss_15test_is_expired0B7_
FN:180,_RNCNvNtNtCs4VDJufQJznm_12shared_utils4time5testss_19test_time_remaining0B7_
FN:158,_RNCNvNtNtCs4VDJufQJznm_12shared_utils4time5testss_25test_calculate_expiration0B7_
FN:81,_RNvMNtCs4VDJufQJznm_12shared_utils4timeNtB2_9TimeUtils8is_valid
FN:189,_RNvNtNtCs4VDJufQJznm_12shared_utils4time5testss_12test_elapsed
FN:167,_RNvNtNtCs4VDJufQJznm_12shared_utils4time5testss_15test_is_expired
FN:178,_RNvNtNtCs4VDJufQJznm_12shared_utils4time5testss_19test_time_remaining
FN:137,_RNvNtNtCs4VDJufQJznm_12shared_utils4time5testss_20test_days_to_seconds
FN:200,_RNvNtNtCs4VDJufQJznm_12shared_utils4time5testss_20test_seconds_to_days
FN:144,_RNvNtNtCs4VDJufQJznm_12shared_utils4time5testss_21test_hours_to_seconds
FN:150,_RNvNtNtCs4VDJufQJznm_12shared_utils4time5testss_23test_minutes_to_seconds
FN:156,_RNvNtNtCs4VDJufQJznm_12shared_utils4time5testss_25test_calculate_expiration
FNDA:0,_RNvMNtCsZvh3qlyGoj_12shared_utils4timeNtB2_9TimeUtils10is_expired
FNDA:0,_RNvMNtCsZvh3qlyGoj_12shared_utils4timeNtB2_9TimeUtils14time_remaining
FNDA:0,_RNvMNtCsZvh3qlyGoj_12shared_utils4timeNtB2_9TimeUtils15days_to_seconds
FNDA:0,_RNvMNtCsZvh3qlyGoj_12shared_utils4timeNtB2_9TimeUtils15seconds_to_days
FNDA:0,_RNvMNtCsZvh3qlyGoj_12shared_utils4timeNtB2_9TimeUtils16hours_to_seconds
FNDA:0,_RNvMNtCsZvh3qlyGoj_12shared_utils4timeNtB2_9TimeUtils18minutes_to_seconds
FNDA:0,_RNvMNtCsZvh3qlyGoj_12shared_utils4timeNtB2_9TimeUtils20calculate_expiration
FNDA:6,_RNvMNtCsZvh3qlyGoj_12shared_utils4timeNtB2_9TimeUtils3now
FNDA:0,_RNvMNtCsZvh3qlyGoj_12shared_utils4timeNtB2_9TimeUtils7elapsed
FNDA:0,_RNvMNtCsZvh3qlyGoj_12shared_utils4timeNtB2_9TimeUtils8is_valid
FNDA:2,_RNvMNtCs4VDJufQJznm_12shared_utils4timeNtB2_9TimeUtils10is_expired
FNDA:2,_RNvMNtCs4VDJufQJznm_12shared_utils4timeNtB2_9TimeUtils14time_remaining
FNDA:5,_RNvMNtCs4VDJufQJznm_12shared_utils4timeNtB2_9TimeUtils15days_to_seconds
FNDA:3,_RNvMNtCs4VDJufQJznm_12shared_utils4timeNtB2_9TimeUtils15seconds_to_days
FNDA:2,_RNvMNtCs4VDJufQJznm_12shared_utils4timeNtB2_9TimeUtils16hours_to_seconds
FNDA:2,_RNvMNtCs4VDJufQJznm_12shared_utils4timeNtB2_9TimeUtils18minutes_to_seconds
FNDA:2,_RNvMNtCs4VDJufQJznm_12shared_utils4timeNtB2_9TimeUtils20calculate_expiration
FNDA:15,_RNvMNtCs4VDJufQJznm_12shared_utils4timeNtB2_9TimeUtils3now
FNDA:2,_RNvMNtCs4VDJufQJznm_12shared_utils4timeNtB2_9TimeUtils7elapsed
FNDA:1,_RNCNvNtNtCs4VDJufQJznm_12shared_utils4time5testss_12test_elapsed0B7_
FNDA:1,_RNCNvNtNtCs4VDJufQJznm_12shared_utils4time5testss_15test_is_expired0B7_
FNDA:1,_RNCNvNtNtCs4VDJufQJznm_12shared_utils4time5testss_19test_time_remaining0B7_
FNDA:1,_RNCNvNtNtCs4VDJufQJznm_12shared_utils4time5testss_25test_calculate_expiration0B7_
FNDA:0,_RNvMNtCs4VDJufQJznm_12shared_utils4timeNtB2_9TimeUtils8is_valid
FNDA:1,_RNvNtNtCs4VDJufQJznm_12shared_utils4time5testss_12test_elapsed
FNDA:1,_RNvNtNtCs4VDJufQJznm_12shared_utils4time5testss_15test_is_expired
FNDA:1,_RNvNtNtCs4VDJufQJznm_12shared_utils4time5testss_19test_time_remaining
FNDA:1,_RNvNtNtCs4VDJufQJznm_12shared_utils4time5testss_20test_days_to_seconds
FNDA:1,_RNvNtNtCs4VDJufQJznm_12shared_utils4time5testss_20test_seconds_to_days
FNDA:1,_RNvNtNtCs4VDJufQJznm_12shared_utils4time5testss_21test_hours_to_seconds
FNDA:1,_RNvNtNtCs4VDJufQJznm_12shared_utils4time5testss_23test_minutes_to_seconds
FNDA:1,_RNvNtNtCs4VDJufQJznm_12shared_utils4time5testss_25test_calculate_expiration
FNF:22
FNH:21
DA:10,21
DA:11,21
DA:12,21
DA:21,5
DA:22,5
DA:23,5
DA:32,2
DA:33,2
DA:34,2
DA:43,2
DA:44,2
DA:45,2
DA:55,2
DA:56,2
DA:57,2
DA:58,2
DA:59,2
DA:69,2
DA:70,2
DA:71,2
DA:81,0
DA:82,0
DA:83,0
DA:93,2
DA:94,2
DA:95,2
DA:96,1
DA:98,1
DA:100,2
DA:110,2
DA:111,2
DA:112,2
DA:113,1
DA:115,1
DA:117,2
DA:126,3
DA:127,3
DA:128,3
DA:137,1
DA:138,1
DA:139,1
DA:140,1
DA:141,1
DA:144,1
DA:145,1
DA:146,1
DA:147,1
DA:150,1
DA:151,1
DA:152,1
DA:153,1
DA:156,1
DA:157,1
DA:158,1
DA:159,1
DA:160,1
DA:162,1
DA:163,1
DA:164,1
DA:167,1
DA:168,1
DA:169,1
DA:170,1
DA:171,1
DA:173,1
DA:174,1
DA:175,1
DA:178,1
DA:179,1
DA:180,1
DA:181,1
DA:182,1
DA:184,1
DA:185,1
DA:186,1
DA:189,1
DA:190,1
DA:191,1
DA:192,1
DA:193,1
DA:195,1
DA:196,1
DA:197,1
DA:200,1
DA:201,1
DA:202,1
DA:203,1
DA:204,1
BRF:0
BRH:0
LF:92
LH:89
end_of_record
SF:/Users/mac/Documents/DripsOS/Commitlabs-Contracts/contracts/shared_utils/src/validation.rs
FN:156,_RNvMNtCsZvh3qlyGoj_12shared_utils10validationNtB2_10Validation11require_max
FN:141,_RNvMNtCsZvh3qlyGoj_12shared_utils10validationNtB2_10Validation11require_min
FN:126,_RNvMNtCsZvh3qlyGoj_12shared_utils10validationNtB2_10Validation16require_in_range
FN:16,_RNvMNtCsZvh3qlyGoj_12shared_utils10validationNtB2_10Validation16require_positive
FN:29,_RNvMNtCsZvh3qlyGoj_12shared_utils10validationNtB2_10Validation20require_non_negative
FN:55,_RNvMNtCsZvh3qlyGoj_12shared_utils10validationNtB2_10Validation21require_valid_percent
FN:42,_RNvMNtCsZvh3qlyGoj_12shared_utils10validationNtB2_10Validation22require_valid_duration
FN:69,_RNvMNtCsZvh3qlyGoj_12shared_utils10validationNtB2_10Validation24require_non_empty_string
FN:85,_RNvMNtCsZvh3qlyGoj_12shared_utils10validationNtB2_10Validation24require_non_zero_address
FN:99,_RNvMNtCsZvh3qlyGoj_12shared_utils10validationNtB2_10Validation29require_valid_commitment_type
FN:156,_RNvMNtCs4VDJufQJznm_12shared_utils10validationNtB2_10Validation11require_max
FN:141,_RNvMNtCs4VDJufQJznm_12shared_utils10validationNtB2_10Validation11require_min
FN:85,_RNvMNtCs4VDJufQJznm_12shared_utils10validationNtB2_10Validation24require_non_zero_address
FN:99,_RNvMNtCs4VDJufQJznm_12shared_utils10validationNtB2_10Validation29require_valid_commitment_type
FN:126,_RNvMNtCs4VDJufQJznm_12shared_utils10validationNtB2_10Validation16require_in_range
FN:16,_RNvMNtCs4VDJufQJznm_12shared_utils10validationNtB2_10Validation16require_positive
FN:29,_RNvMNtCs4VDJufQJznm_12shared_utils10validationNtB2_10Validation20require_non_negative
FN:55,_RNvMNtCs4VDJufQJznm_12shared_utils10validationNtB2_10Validation21require_valid_percent
FN:42,_RNvMNtCs4VDJufQJznm_12shared_utils10validationNtB2_10Validation22require_valid_duration
FN:69,_RNvMNtCs4VDJufQJznm_12shared_utils10validationNtB2_10Validation24require_non_empty_string
FN:224,_RNvNtNtCs4VDJufQJznm_12shared_utils10validation5testss_21test_require_in_range
FN:168,_RNvNtNtCs4VDJufQJznm_12shared_utils10validation5testss_21test_require_positive
FN:186,_RNvNtNtCs4VDJufQJznm_12shared_utils10validation5testss_25test_require_non_negative
FN:211,_RNvNtNtCs4VDJufQJznm_12shared_utils10validation5testss_26test_require_valid_percent
FN:199,_RNvNtNtCs4VDJufQJznm_12shared_utils10validation5testss_27test_require_valid_duration
FN:194,_RNvNtNtCs4VDJufQJznm_12shared_utils10validation5testss_31test_require_non_negative_fails
FN:175,_RNvNtNtCs4VDJufQJznm_12shared_utils10validation5testss_32test_require_positive_fails_zero
FN:219,_RNvNtNtCs4VDJufQJznm_12shared_utils10validation5testss_32test_require_valid_percent_fails
FN:238,_RNvNtNtCs4VDJufQJznm_12shared_utils10validation5testss_33test_require_in_range_fails_above
FN:232,_RNvNtNtCs4VDJufQJznm_12shared_utils10validation5testss_33test_require_in_range_fails_below
FN:206,_RNvNtNtCs4VDJufQJznm_12shared_utils10validation5testss_33test_require_valid_duration_fails
FN:181,_RNvNtNtCs4VDJufQJznm_12shared_utils10validation5testss_36test_require_positive_fails_negative
FNDA:0,_RNvMNtCsZvh3qlyGoj_12shared_utils10validationNtB2_10Validation11require_max
FNDA:0,_RNvMNtCsZvh3qlyGoj_12shared_utils10validationNtB2_10Validation11require_min
FNDA:0,_RNvMNtCsZvh3qlyGoj_12shared_utils10validationNtB2_10Validation16require_in_range
FNDA:0,_RNvMNtCsZvh3qlyGoj_12shared_utils10validationNtB2_10Validation16require_positive
FNDA:0,_RNvMNtCsZvh3qlyGoj_12shared_utils10validationNtB2_10Validation20require_non_negative
FNDA:3,_RNvMNtCsZvh3qlyGoj_12shared_utils10validationNtB2_10Validation21require_valid_percent
FNDA:4,_RNvMNtCsZvh3qlyGoj_12shared_utils10validationNtB2_10Validation22require_valid_duration
FNDA:0,_RNvMNtCsZvh3qlyGoj_12shared_utils10validationNtB2_10Validation24require_non_empty_string
FNDA:0,_RNvMNtCsZvh3qlyGoj_12shared_utils10validationNtB2_10Validation24require_non_zero_address
FNDA:2,_RNvMNtCsZvh3qlyGoj_12shared_utils10validationNtB2_10Validation29require_valid_commitment_type
FNDA:0,_RNvMNtCs4VDJufQJznm_12shared_utils10validationNtB2_10Validation11require_max
FNDA:0,_RNvMNtCs4VDJufQJznm_12shared_utils10validationNtB2_10Validation11require_min
FNDA:0,_RNvMNtCs4VDJufQJznm_12shared_utils10validationNtB2_10Validation24require_non_zero_address
FNDA:0,_RNvMNtCs4VDJufQJznm_12shared_utils10validationNtB2_10Validation29require_valid_commitment_type
FNDA:5,_RNvMNtCs4VDJufQJznm_12shared_utils10validationNtB2_10Validation16require_in_range
FNDA:5,_RNvMNtCs4VDJufQJznm_12shared_utils10validationNtB2_10Validation16require_positive
FNDA:4,_RNvMNtCs4VDJufQJznm_12shared_utils10validationNtB2_10Validation20require_non_negative
FNDA:5,_RNvMNtCs4VDJufQJznm_12shared_utils10validationNtB2_10Validation21require_valid_percent
FNDA:3,_RNvMNtCs4VDJufQJznm_12shared_utils10validationNtB2_10Validation22require_valid_duration
FNDA:1,_RNvMNtCs4VDJufQJznm_12shared_utils10validationNtB2_10Validation24require_non_empty_string
FNDA:1,_RNvNtNtCs4VDJufQJznm_12shared_utils10validation5testss_21test_require_in_range
FNDA:1,_RNvNtNtCs4VDJufQJznm_12shared_utils10validation5testss_21test_require_positive
FNDA:1,_RNvNtNtCs4VDJufQJznm_12shared_utils10validation5testss_25test_require_non_negative
FNDA:1,_RNvNtNtCs4VDJufQJznm_12shared_utils10validation5testss_26test_require_valid_percent
FNDA:1,_RNvNtNtCs4VDJufQJznm_12shared_utils10validation5testss_27test_require_valid_duration
FNDA:1,_RNvNtNtCs4VDJufQJznm_12shared_utils10validation5testss_31test_require_non_negative_fails
FNDA:1,_RNvNtNtCs4VDJufQJznm_12shared_utils10validation5testss_32test_require_positive_fails_zero
FNDA:1,_RNvNtNtCs4VDJufQJznm_12shared_utils10validation5testss_32test_require_valid_percent_fails
FNDA:1,_RNvNtNtCs4VDJufQJznm_12shared_utils10validation5testss_33test_require_in_range_fails_above
FNDA:1,_RNvNtNtCs4VDJufQJznm_12shared_utils10validation5testss_33test_require_in_range_fails_below
FNDA:1,_RNvNtNtCs4VDJufQJznm_12shared_utils10validation5testss_33test_require_valid_duration_fails
FNDA:1,_RNvNtNtCs4VDJufQJznm_12shared_utils10validation5testss_36test_require_positive_fails_negative
FNF:22
FNH:19
DA:16,5
DA:17,5
DA:18,2
DA:19,3
DA:20,3
DA:29,4
DA:30,4
DA:31,1
DA:32,3
DA:33,3
DA:42,7
DA:43,7
DA:44,2
DA:45,5
DA:46,5
DA:55,8
DA:56,8
DA:57,2
DA:58,6
DA:59,6
DA:69,1
DA:70,1
DA:71,0
DA:72,1
DA:73,1
DA:85,0
DA:88,0
DA:99,2
DA:100,2
DA:101,2
DA:102,2
DA:103,2
DA:104,2
DA:105,4
DA:106,4
DA:107,1
DA:108,1
DA:109,3
DA:111,2
DA:112,1
DA:113,1
DA:114,1
DA:126,5
DA:127,5
DA:128,2
DA:129,3
DA:130,3
DA:141,0
DA:142,0
DA:143,0
DA:144,0
DA:145,0
DA:156,0
DA:157,0
DA:158,0
DA:159,0
DA:160,0
DA:168,1
DA:169,1
DA:170,1
DA:171,1
DA:175,1
DA:176,1
DA:177,1
DA:181,1
DA:182,1
DA:183,1
DA:186,1
DA:187,1
DA:188,1
DA:189,1
DA:190,1
DA:194,1
DA:195,1
DA:196,1
DA:199,1
DA:200,1
DA:201,1
DA:202,1
DA:206,1
DA:207,1
DA:208,1
DA:211,1
DA:212,1
DA:213,1
DA:214,1
DA:215,1
DA:219,1
DA:220,1
DA:221,1
DA:224,1
DA:225,1
DA:226,1
DA:227,1
DA:228,1
DA:232,1
DA:233,1
DA:234,1
DA:238,1
DA:239,1
DA:240,1
BRF:0
BRH:0
LF:101
LH:88
end_of_record